ccopy_reg
_reconstructor
p1
(ctensorflow.contrib.learn.python.learn.preprocessing.text
VocabularyProcessor
p2
c__builtin__
object
p3
NtRp4
(dp5
S'vocabulary_'
p6
g1
(ctensorflow.contrib.learn.python.learn.preprocessing.categorical_vocabulary
CategoricalVocabulary
p7
g3
NtRp8
(dp9
S'_freeze'
p10
I01
sS'_unknown_token'
p11
S'<UNK>'
p12
sS'_support_reverse'
p13
I01
sS'_freq'
p14
ccollections
defaultdict
p15
(c__builtin__
int
p16
tRp17
S'Savage'
p18
I1
sS'Stuart'
p19
I1
sS'colleges'
p20
I1
sS'revelers'
p21
I1
sS'earmarks'
p22
I1
sS'Does'
p23
I2
sS'controversial'
p24
I2
sS'aides'
p25
I1
sS'captain'
p26
I1
sS'hate'
p27
I2
sS"Apple's"
p28
I1
sS'Liverpool'
p29
I7
sS'Livingstone'
p30
I1
sS"China's"
p31
I2
sS'Watch'
p32
I9
sS'pensions'
p33
I1
sS'Host'
p34
I1
sS"fog'"
p35
I1
sS'under'
p36
I3
sS"'Fate"
p37
I1
sS'Tube'
p38
I2
sS'Euro'
p39
I1
sS'Shoot'
p40
I1
sS'League'
p41
I3
sS'risk'
p42
I1
sS"'marathon'"
p43
I1
sS'GP'
p44
I1
sS'Industry'
p45
I1
sS"Warriors'"
p46
I1
sS'Heinz'
p47
I1
sS'GB'
p48
I2
sS'much-loved'
p49
I1
sS'Suitors'
p50
I1
sS'Post-Credits'
p51
I1
sS'Steal'
p52
I1
sS'tickets'
p53
I1
sS'Abbas'
p54
I1
sS'school'
p55
I1
sS'Dustin'
p56
I1
sS'Campaign'
p57
I4
sS'supports'
p58
I1
sS'SNL'
p59
I9
sS'Premier'
p60
I1
sS'protest'
p61
I3
sS'red'
p62
I2
sS'Go'
p63
I2
sS'barracks'
p64
I1
sS'monologue'
p65
I1
sS'shows'
p66
I1
sS'Into'
p67
I2
sS'Siegemund'
p68
I1
sS'phones'
p69
I1
sS'warns'
p70
I1
sS'Christie'
p71
I1
sS'budget'
p72
I3
sS"Labrador's"
p73
I1
sS'Pathogen'
p74
I1
sS'even'
p75
I1
sS'Kaufman'
p76
I1
sS'Tottenham'
p77
I1
sS'Samsung'
p78
I5
sS'liberty'
p79
I1
sS'Amazon'
p80
I3
sS'Hamilton'
p81
I3
sS'new'
p82
I8
sS'net'
p83
I1
sS'officially'
p84
I1
sS'Presidential'
p85
I1
sS'Varnish'
p86
I1
sS'Needing'
p87
I1
sS'G6'
p88
I1
sS'join'
p89
I1
sS'Dreaming'
p90
I6
sS'Budget'
p91
I3
sS'Profiles'
p92
I1
sS'hundreds'
p93
I1
sS'protection'
p94
I1
sS'000-year-old'
p95
I1
sS'Faces'
p96
I1
sS'Sidelined'
p97
I1
sS'100'
p98
I2
sS'Judd'
p99
I1
sS'Precise'
p100
I1
sS'ODI'
p101
I1
sS'kids'
p102
I2
sS'daughter'
p103
I1
sS'Pushes'
p104
I1
sS'employees'
p105
I1
sS'Judy'
p106
I1
sS'reports'
p107
I1
sS'controversy'
p108
I1
sS'Pushed'
p109
I1
sS'Qaeda'
p110
I1
sS'Queer'
p111
I1
sS'military'
p112
I1
sS'Doncaster'
p113
I1
sS'pack'
p114
I1
sS'changes'
p115
I1
sS'rebel'
p116
I1
sS'criticism'
p117
I1
sS'Orleans'
p118
I1
sS'divide'
p119
I1
sS'campaign'
p120
I5
sS'Chaffetz'
p121
I1
sS'27-18'
p122
I2
sS'two-state'
p123
I1
sS'Three'
p124
I1
sS'replace'
p125
I1
sS'patience'
p126
I1
sS'ridicules'
p127
I1
sS'Health'
p128
I9
sS'Senator'
p129
I1
sS"'mother"
p130
I1
sS'actions'
p131
I1
sS'Messing'
p132
I1
sS'Jen'
p133
I1
sS'cold\xc2'
p134
I1
sS'opponents'
p135
I1
sS'Wal-Mart\xe2'
p136
I1
sS'plot'
p137
I1
sS"crash'"
p138
I1
sS'Star'
p139
I3
sS'spoke'
p140
I1
sS'would'
p141
I1
sS'army'
p142
I1
sS'hospital'
p143
I1
sS'voters'
p144
I4
sS'Removes'
p145
I1
sS'chooses'
p146
I1
sS'insult'
p147
I1
sS'leaks'
p148
I3
sS'music'
p149
I1
sS'Threatens'
p150
I2
sS'strike'
p151
I1
sS'Johanna'
p152
I2
sS'preview'
p153
I1
sS'Brighton'
p154
I1
sS'Blind'
p155
I2
sS'brings'
p156
I2
sS'naive'
p157
I1
sS'phone'
p158
I3
sS'Hacking'
p159
I2
sS"'Booth"
p160
I1
sS'95'
p161
I2
sS'Champs'
p162
I1
sS'must'
p163
I2
sS'me'
p164
I1
sS'Signing'
p165
I1
sS'word'
p166
I1
sS'Ending'
p167
I1
sS'Battery'
p168
I1
sS'experts'
p169
I1
sS'Potential'
p170
I1
sS'my'
p171
I2
sS'addictive'
p172
I1
sS'Lie'
p173
I1
sS'Riverdale\xe2'
p174
I1
sS'Le'
p175
I10
sS'Lib'
p176
I1
sS'give'
p177
I2
sS'Lil'
p178
I1
sS'cited'
p179
I1
sS'Globalization'
p180
I1
sS'Billion'
p181
I3
sS'Teenager'
p182
I1
sS'want'
p183
I1
sS'Marxism'
p184
I1
sS'Falling'
p185
I1
sS'ceremony'
p186
I1
sS'LG'
p187
I2
sS'Cuts'
p188
I2
sS'end'
p189
I1
sS'Benoit'
p190
I1
sS'Bolton'
p191
I1
sS'Jamie'
p192
I1
sS'travel'
p193
I3
sS"'hold"
p194
I1
sS'Killing'
p195
I2
sS'how'
p196
I2
sS'Brightest'
p197
I1
sS'High-Tech'
p198
I1
sS'Tyson'
p199
I1
sS'Weekend'
p200
I1
sS"He'll"
p201
I1
sS'A'
I8
sS'Triple'
p202
I1
sS'mess'
p203
I1
sS'quits'
p204
I1
sS'after'
p205
I21
sS'Will'
p206
I5
sS'Players'
p207
I2
sS'Wild'
p208
I2
sS'president'
p209
I4
sS'law'
p210
I1
sS'ex-wife'
p211
I1
sS'All'
p212
I2
sS'attempt'
p213
I1
sS'fewer'
p214
I1
sS'wins'
p215
I13
sS'Superbugs'
p216
I1
sS'Became'
p217
I1
sS'Another'
p218
I2
sS'Beyond'
p219
I1
sS'order'
p220
I1
sS'updates'
p221
I1
sS"effect'"
p222
I1
sS'Eye'
p223
I1
sS'over'
p224
I9
sS"Italy's"
p225
I1
sS'Kante'
p226
I1
sS'Pixel'
p227
I1
sS'before'
p228
I3
sS'His'
p229
I4
sS'Hero'
p230
I1
sS'personal'
p231
I1
sS'highlights'
p232
I3
sS"'Nobody"
p233
I1
sS'Here'
p234
I1
sS'better'
p235
I1
sS'Judge'
p236
I1
sS'Him'
p237
I1
sS'them'
p238
I1
sS'Kids'
p239
I1
sS'at\xc2'
p240
I1
sS'Mobile'
p241
I1
sS'safe'
p242
I1
sS'Analysis'
p243
I2
sS'Volvo'
p244
I1
sS'Omar'
p245
I2
sS'they'
p246
I3
sS'Cards'
p247
I1
sS'Mechanics'
p248
I1
sS'Hats'
p249
I2
sS'self\xe2'
p250
I1
sS'Argues'
p251
I1
sS'filling'
p252
I1
sS'victory'
p253
I1
sS'each'
p254
I1
sS'Rovers'
p255
I4
sS'Dow'
p256
I1
sS'Hate'
p257
I1
sS'Check'
p258
I1
sS'Transport'
p259
I1
sS'Millions'
p260
I1
sS'lifted'
p261
I1
sS'series'
p262
I2
sS'Percent'
p263
I1
sS'Cos'
p264
I1
sS'aide'
p265
I1
sS'Anyone'
p266
I1
sS'taught'
p267
I1
sS'Hill\xe2'
p268
I1
sS'magnets'
p269
I1
sS'stealing'
p270
I1
sS"immigrate'"
p271
I1
sS'Styles'
p272
I1
sS'whining'
p273
I1
sS'half-brother\xc2'
p274
I1
sS'driving'
p275
I1
sS"Misbegotten'"
p276
I1
sS'open'
p277
I2
sS'megafauna'
p278
I1
sS'Wars'
p279
I2
sS'ABook'
p280
I1
sS'Berkshire'
p281
I1
sS'Civilians'
p282
I1
sS'got'
p283
I2
sS'Hold'
p284
I1
sS'Super'
p285
I2
sS'Must'
p286
I2
sS'DLC'
p287
I2
sS'Boris'
p288
I1
sS'resume'
p289
I1
sS'Galloway'
p290
I1
sS'candidate'
p291
I1
sS'Work'
p292
I1
sS'given'
p293
I1
sS'free'
p294
I2
sS'admits'
p295
I1
sS'Facts\xe2'
p296
I1
sS'struggle'
p297
I1
sS'W'
I1
sS'Tariffs'
p298
I1
sS'wanted'
p299
I1
sS'Soft'
p300
I1
sS'Paul'
p301
I3
sS'fret'
p302
I1
sS'Clinton'
p303
I2
sS"go'"
p304
I1
sS'school\xc2'
p305
I1
sS'National'
p306
I3
sS'the\xc2'
p307
I2
sS'Shane'
p308
I1
sS'Driveway'
p309
I1
sS'Funds'
p310
I2
sS'Antarctic'
p311
I1
sS'hire'
p312
I2
sS'Bridges'
p313
I1
sS'daunting'
p314
I1
sS'Prepare'
p315
I1
sS'coding'
p316
I1
sS'accidentally'
p317
I1
sS'Soundsystem'
p318
I1
sS'Lunardi'
p319
I1
sS'another'
p320
I1
sS'synch\xc2'
p321
I1
sS'Congress'
p322
I3
sS'Root'
p323
I1
sS'top'
p324
I2
sS'engagement'
p325
I1
sS'girls'
p326
I5
sS'Inflation'
p327
I1
sS'too'
p328
I1
sS"Off'"
p329
I1
sS'Nintendo'
p330
I1
sS'Press'
p331
I2
sS"nation'"
p332
I1
sS'Selena'
p333
I1
sS'terrifying'
p334
I1
sS'murder'
p335
I1
sS'Rare'
p336
I1
sS'Pitting'
p337
I1
sS'BBC'
p338
I8
sS'Victory'
p339
I1
sS'Neighbor'
p340
I1
sS'Smoke-filled'
p341
I1
sS"Puzder's"
p342
I3
sS'Code'
p343
I1
sS'target'
p344
I1
sS'roles'
p345
I2
sS'hike'
p346
I1
sS'It\xe2'
p347
I1
sS'Two-Hour'
p348
I1
sS'Cyber'
p349
I1
sS"'Morning"
p350
I1
sS'Elected'
p351
I1
sS'See'
p352
I1
sS'What\xe2'
p353
I1
sS'hacking'
p354
I2
sS'Galaxy'
p355
I7
sS'pointed'
p356
I1
sS"'Girl"
p357
I1
sS'Lincoln'
p358
I3
sS'to\xc2'
p359
I1
sS'Mnuchin'
p360
I1
sS'sees'
p361
I1
sS'seek'
p362
I1
sS'tells'
p363
I1
sS'Williams'
p364
I1
sS'Mulvaney'
p365
I1
sS'Canter'
p366
I1
sS'genuine'
p367
I1
sS'Oscars'
p368
I11
sS'3DS'
p369
I1
sS'-'
I76
sS'Manny'
p370
I1
sS"Let's"
p371
I1
sS'chess'
p372
I1
sS'forces'
p373
I1
sS'Stoke'
p374
I1
sS'tunnels'
p375
I1
sS'reelection'
p376
I1
sS'\xc2'
I6
sS'Reports'
p377
I1
sS"Year's"
p378
I1
sS'Pledges'
p379
I1
sS'letter'
p380
I2
sS'Giro'
p381
I1
sS'Guardians'
p382
I7
sS'Vision'
p383
I2
sS"It'll"
p384
I1
sS'Promises'
p385
I2
sS'episode'
p386
I1
sS'treats'
p387
I1
sS'Samurai'
p388
I1
sS"Project'"
p389
I1
sS'went'
p390
I1
sS'Vauxhall'
p391
I1
sS'crowd'
p392
I2
sS'Single'
p393
I1
sS'points'
p394
I2
sS'tech'
p395
I1
sS'Election'
p396
I6
sS'Want'
p397
I2
sS'Filmmaking'
p398
I1
sS'voting'
p399
I1
sS'Its'
p400
I5
sS'FACT'
p401
I1
sS'saying'
p402
I1
sS'Winner\xe2'
p403
I1
sS'Ozobot'
p404
I1
sS'bomb'
p405
I1
sS'Union'
p406
I2
sS'Tapper'
p407
I1
sS'Colbert\xe2'
p408
I1
sS'Colbert'
p409
I1
sS'ending'
p410
I1
sS'colors'
p411
I1
sS'radio'
p412
I1
sS'Vehicle'
p413
I1
sS'Here\xe2'
p414
I2
sS'Resources'
p415
I1
sS'Democratic'
p416
I2
sS'Stance'
p417
I1
sS'Reaching'
p418
I1
sS'Big'
p419
I4
sS'explain'
p420
I1
sS'Republicans'
p421
I8
sS'AWS'
p422
I1
sS'Game'
p423
I3
sS'Free'
p424
I2
sS'LIVE'
p425
I2
sS'Wealthy'
p426
I1
sS'Nixon'
p427
I1
sS'Fiscal'
p428
I1
sS'do'
p429
I2
sS'colorful'
p430
I1
sS'Turns'
p431
I1
sS'watch'
p432
I2
sS'Days'
p433
I1
sS'coast'
p434
I1
sS'Pound'
p435
I1
sS'despite'
p436
I2
sS'report'
p437
I2
sS'X'
I7
sS'Fingleton'
p438
I1
sS'Soviet'
p439
I1
sS"Durant's"
p440
I1
sS'Senators'
p441
I1
sS'bat'
p442
I1
sS'Looms'
p443
I3
sS"'World"
p444
I1
sS'new\xc2'
p445
I1
sS'ever'
p446
I2
sS'Over'
p447
I3
sS'Washington'
p448
I3
sS'run-off'
p449
I1
sS'Perez'
p450
I4
sS"Beast'"
p451
I1
sS'secretary'
p452
I3
sS'questions'
p453
I4
sS'testing'
p454
I3
sS'Pen'
p455
I10
sS'Olympian'
p456
I1
sS'result'
p457
I1
sS'Indexed'
p458
I1
sS'Formula'
p459
I2
sS'John'
p460
I5
sS'Boost'
p461
I1
sS'best'
p462
I5
sS"2's"
p463
I1
sS'draws'
p464
I3
sS'Murray'
p465
I2
sS'bicker'
p466
I1
sS'inappropriate'
p467
I1
sS'away'
p468
I3
sS'Rise'
p469
I1
sS'compensation'
p470
I1
sS'narrates'
p471
I1
sS'score'
p472
I1
sS'day-old'
p473
I1
sS'Peugeot'
p474
I1
sS'K'
I1
sS'Roundup'
p475
I2
sS'Ranieri'
p476
I4
sS'we'
p477
I2
sS'men'
p478
I1
sS'Central'
p479
I1
sS'loves'
p480
I1
sS'vows'
p481
I2
sS'Hike'
p482
I4
sS'were'
p483
I1
sS'Tree'
p484
I1
sS'Assistant'
p485
I1
sS'boss'
p486
I3
sS'Populism'
p487
I1
sS'awards'
p488
I1
sS'news'
p489
I3
sS'Veronica'
p490
I1
sS'protect'
p491
I1
sS"pressure'"
p492
I1
sS'Cruiser'
p493
I1
sS'Newcastle'
p494
I1
sS'uncertainty'
p495
I1
sS'gonna'
p496
I1
sS'against'
p497
I7
sS'Laura'
p498
I3
sS'players'
p499
I1
sS'shakeup'
p500
I1
sS'Oscar'
p501
I6
sS'Navy'
p502
I2
sS'com'
p503
I1
sS'asked'
p504
I1
sS'Closer'
p505
I1
sS'Spotify'
p506
I1
sS'Apartment'
p507
I1
sS"Farah's"
p508
I1
sS"diversity'"
p509
I1
sS'Snow'
p510
I1
sS'2nd'
p511
I1
sS'Brace'
p512
I1
sS'Ireland'
p513
I3
sS'trust'
p514
I1
sS'Gives'
p515
I1
sS'conference'
p516
I2
sS'Chavez'
p517
I2
sS'asks'
p518
I3
sS'basis'
p519
I1
sS'union'
p520
I1
sS'Releasing'
p521
I1
sS'Southern'
p522
I1
sS'three'
p523
I5
sS'been'
p524
I4
sS'Laren'
p525
I1
sS'Bracketology'
p526
I1
sS'Hillary'
p527
I1
sS'much'
p528
I1
sS'basic'
p529
I1
sS"'complicated'"
p530
I1
sS'fake\xc2'
p531
I1
sS'Donald'
p532
I3
sS'probe'
p533
I3
sS'Georgia'
p534
I1
sS'families'
p535
I1
sS'beloved'
p536
I1
sS'Utd'
p537
I1
sS'attacked'
p538
I1
sS'Poland'
p539
I1
sS"administration'"
p540
I1
sS'Philadelphia'
p541
I1
sS'World\xe2'
p542
I1
sS'Night'
p543
I2
sS'Claims'
p544
I3
sS'Trans'
p545
I1
sS'Secretary'
p546
I2
sS'has'
p547
I4
sS'Accuses'
p548
I1
sS'Rocket'
p549
I1
sS'Conway'
p550
I3
sS'launches'
p551
I2
sS'super-rich'
p552
I1
sS'starts'
p553
I2
sS'Dollar'
p554
I2
sS'Billions'
p555
I1
sS'aim'
p556
I1
sS'abrupt'
p557
I1
sS'leaves'
p558
I1
sS'Tuesday'
p559
I1
sS'launched'
p560
I1
sS'mistake'
p561
I2
sS'is'
p562
I37
sS'dumped'
p563
I1
sS'it'
p564
I5
sS'Bush'
p565
I1
sS'Candidates'
p566
I1
sS'in'
p567
I94
sS'Sir'
p568
I1
sS'Warriors'
p569
I1
sS'Tell'
p570
I1
sS'if'
p571
I1
sS'grown'
p572
I1
sS'patent'
p573
I1
sS'things'
p574
I1
sS'make'
p575
I1
sS'Woodruff'
p576
I1
sS'Ramps'
p577
I1
sS'Pratt'
p578
I1
sS'Wins'
p579
I6
sS'President'
p580
I5
sS'several'
p581
I1
sS'Covenant'
p582
I2
sS'Runs'
p583
I1
sS'raid'
p584
I1
sS'Elect'
p585
I1
sS'outspends'
p586
I1
sS'pick'
p587
I1
sS'tops'
p588
I1
sS'Truck'
p589
I1
sS'Home'
p590
I2
sS'Air'
p591
I1
sS'Builders'
p592
I1
sS'Flashback'
p593
I1
sS'Gates'
p594
I2
sS'kept'
p595
I1
sS'Leicester'
p596
I9
sS'Hydrogen'
p597
I1
sS'Gavin'
p598
I1
sS'Wasps'
p599
I1
sS'Vs'
p600
I1
sS'Tribune'
p601
I1
sS'Gabbiadini'
p602
I2
sS'detained'
p603
I2
sS'mother'
p604
I1
sS'claims'
p605
I3
sS'the'
p606
I113
sS'800'
p607
I2
sS'Mint'
p608
I1
sS'Russell'
p609
I1
sS'just'
p610
I2
sS'photo'
p611
I1
sS'Bobsleigh'
p612
I1
sS"doubts'"
p613
I1
sS'battles'
p614
I1
sS'human'
p615
I1
sS'plight'
p616
I1
sS'yet'
p617
I1
sS'resurrected'
p618
I1
sS'Eternity'
p619
I1
sS'Fares'
p620
I1
sS'Yemen'
p621
I1
sS'blowback'
p622
I1
sS"'Roadkill'"
p623
I1
sS'mix'
p624
I1
sS'Heseltine'
p625
I1
sS'assassination'
p626
I1
sS'had'
p627
I1
sS'Soundtrack'
p628
I1
sS'julep'
p629
I1
sS'board'
p630
I1
sS'easy'
p631
I1
sS'prison'
p632
I1
sS'Recap'
p633
I6
sS'News'
p634
I5
sS'Philip'
p635
I1
sS'save'
p636
I1
sS'D'
I1
sS'Lords'
p637
I1
sS'James'
p638
I2
sS'breaks'
p639
I2
sS'Messages'
p640
I1
sS'possible'
p641
I1
sS'Morning'
p642
I3
sS'30'
p643
I1
sS'poses'
p644
I1
sS'apart'
p645
I1
sS'Remix'
p646
I1
sS'Heart'
p647
I1
sS'Trump'
p648
I70
sS'54'
p649
I1
sS'High-Stakes'
p650
I1
sS'Schleswig-Holstein'
p651
I1
sS'50'
p652
I3
sS'Claudio'
p653
I2
sS'Echo'
p654
I1
sS'Are'
p655
I10
sS'Steven'
p656
I6
sS'Bracewell'
p657
I1
sS'attack\xe2'
p658
I1
sS'security'
p659
I4
sS'Pentagon'
p660
I3
sS'Prince'
p661
I1
sS'Warren'
p662
I5
sS"Utd's"
p663
I1
sS'Jones\xe2'
p664
I1
sS'deal'
p665
I2
sS'people'
p666
I4
sS'sends'
p667
I1
sS'Literally'
p668
I1
sS'opening\xc2'
p669
I1
sS'Venezuela\xe2'
p670
I2
sS'excerpt'
p671
I1
sS'Holcomb'
p672
I5
sS'Tiny'
p673
I1
sS'Suspect'
p674
I1
sS'election'
p675
I17
sS'Department'
p676
I2
sS'Wales'
p677
I2
sS'Fargo'
p678
I1
sS'Off'
p679
I3
sS'harassment'
p680
I2
sS'Kushners'
p681
I1
sS"Jones'"
p682
I1
sS"easiest'"
p683
I1
sS'Life'
p684
I1
sS'total'
p685
I1
sS'Lee'
p686
I2
sS'for'
p687
I62
sS'vacuum'
p688
I1
sS'Nobody'
p689
I1
sS'ice'
p690
I1
sS'rhino'
p691
I1
sS'Facebook'
p692
I4
sS'Chris'
p693
I2
sS'beating'
p694
I1
sS'booking'
p695
I1
sS'He'
p696
I4
sS'Jose'
p697
I1
sS"complicated'"
p698
I1
sS'tour'
p699
I1
sS"'SportsCenter'"
p700
I1
sS'predicting'
p701
I1
sS'Nicholson'
p702
I1
sS'Daily'
p703
I4
sS'Norkett'
p704
I1
sS'Unleash'
p705
I1
sS'Project'
p706
I1
sS'memorable'
p707
I1
sS'Been'
p708
I1
sS'First'
p709
I4
sS'Amber'
p710
I1
sS'Canelo'
p711
I1
sS'attacks'
p712
I2
sS'accepts'
p713
I1
sS'Taylor'
p714
I1
sS'Bridesmaid'
p715
I1
sS'undocumented'
p716
I1
sS'dinner'
p717
I4
sS'banker'
p718
I1
sS'Controversial'
p719
I1
sS'Fail'
p720
I1
sS'Pedestal'
p721
I1
sS'Gomez'
p722
I1
sS'prebuttal'
p723
I1
sS'Best'
p724
I6
sS'Use'
p725
I1
sS'Cut'
p726
I3
sS'Missed'
p727
I1
sS'Nike'
p728
I1
sS'Make'
p729
I3
sS'Scotland'
p730
I1
sS'sketch'
p731
I1
sS'son'
p732
I1
sS'Few'
p733
I1
sS'right'
p734
I3
sS"Theory'"
p735
I1
sS'raises'
p736
I2
sS'Provides'
p737
I1
sS'Tale\xe2'
p738
I1
sS'Chains'
p739
I1
sS'Schiff'
p740
I1
sS'ISIS'
p741
I2
sS'Exam'
p742
I1
sS'Reported'
p743
I1
sS'support'
p744
I3
sS'Raid\xe2'
p745
I1
sS'Tops'
p746
I1
sS'fight'
p747
I3
sS'Break'
p748
I1
sS'way'
p749
I3
sS'NBC'
p750
I2
sS'call'
p751
I2
sS'was'
p752
I4
sS'halls'
p753
I2
sS'launching'
p754
I1
sS'DNC'
p755
I2
sS'offer'
p756
I1
sS'Disability'
p757
I1
sS"People's"
p758
I1
sS'System'
p759
I1
sS"'I'm"
p760
I1
sS'hear'
p761
I1
sS'dead'
p762
I3
sS"Fed's"
p763
I1
sS"emotions'"
p764
I1
sS'Aramco'
p765
I1
sS'silliness'
p766
I1
sS'Rewrite'
p767
I1
sS'Vol'
p768
I5
sS'bids'
p769
I1
sS"Crooks'"
p770
I1
sS'County'
p771
I1
sS'Cotter'
p772
I1
sS'Engineering'
p773
I1
sS'lays'
p774
I1
sS'Vos'
p775
I1
sS'Tony'
p776
I2
sS'emotional'
p777
I1
sS'30m'
p778
I1
sS'150'
p779
I1
sS'promises'
p780
I2
sS'Granada'
p781
I1
sS'Bullish'
p782
I1
sS'Six'
p783
I8
sS'Surpasses'
p784
I1
sS'proves'
p785
I2
sS'Grumbling'
p786
I1
sS'trip'
p787
I1
sS'regime'
p788
I1
sS'Begin'
p789
I1
sS'contests'
p790
I1
sS'Handle'
p791
I1
sS'no'
p792
I2
sS'when'
p793
I1
sS'Andrew'
p794
I6
sS'actor'
p795
I3
sS'warms'
p796
I1
sS'Olga'
p797
I1
sS'test'
p798
I4
sS"terrorism'"
p799
I1
sS'Tracy'
p800
I1
sS'Dame'
p801
I1
sS'1-2'
p802
I2
sS'picture'
p803
I3
sS"'s"
p804
I5
sS'Edinburgh'
p805
I1
sS'dies'
p806
I13
sS'why'
p807
I4
sS'Later'
p808
I1
sS'Drive'
p809
I1
sS'trailers'
p810
I1
sS'Questions'
p811
I1
sS'Motherwell'
p812
I1
sS'scores'
p813
I1
sS'Sunday\xe2'
p814
I1
sS'died'
p815
I1
sS'billion'
p816
I2
sS'longer'
p817
I1
sS'Pacquiao'
p818
I1
sS'Win'
p819
I3
sS'Corvey'
p820
I1
sS"Exxon's"
p821
I1
sS'Jess'
p822
I1
sS'Sunderland'
p823
I1
sS"'A"
p824
I1
sS'time'
p825
I3
sS'push'
p826
I1
sS'Roger'
p827
I1
sS'Empire'
p828
I1
sS"'I"
p829
I1
sS'songs'
p830
I1
sS'West\xe2'
p831
I1
sS'coach'
p832
I1
sS'skip'
p833
I1
sS'celebs'
p834
I1
sS'Buffett'
p835
I10
sS'Macron'
p836
I18
sS'leads'
p837
I3
sS'known'
p838
I1
sS'manager'
p839
I1
sS'boy-band'
p840
I1
sS'Found'
p841
I1
sS'battle'
p842
I1
sS'remarkably'
p843
I1
sS'Gets'
p844
I1
sS'Cowell'
p845
I1
sS'Today'
p846
I1
sS'21st'
p847
I1
sS'hold'
p848
I1
sS'Columbia'
p849
I1
sS'essentials'
p850
I1
sS'Dan'
p851
I1
sS'Ridley'
p852
I1
sS'Milestone'
p853
I1
sS"bombs'"
p854
I2
sS'Let'
p855
I1
sS'Hedge'
p856
I2
sS'Day'
p857
I6
sS'town'
p858
I2
sS'Political'
p859
I1
sS'Allows'
p860
I1
sS'1993'
p861
I1
sS'Wilbur'
p862
I1
sS'choice'
p863
I1
sS"staffers'"
p864
I1
sS'Jokes'
p865
I1
sS'Tech'
p866
I1
sS'anonymous'
p867
I1
sS'Financial'
p868
I1
sS'Where'
p869
I3
sS'swapping'
p870
I1
sS'Just'
p871
I5
sS'did'
p872
I2
sS'Tax'
p873
I3
sS'gun'
p874
I1
sS'team'
p875
I3
sS'speculation'
p876
I1
sS'George'
p877
I2
sS'Kevin'
p878
I2
sS"'Doctor"
p879
I1
sS'Rey'
p880
I1
sS'says'
p881
I15
sS'Boy'
p882
I2
sS"'Why"
p883
I1
sS'deflating'
p884
I1
sS'Test'
p885
I1
sS'adulation'
p886
I1
sS'Shakespeare'
p887
I1
sS'Rich'
p888
I2
sS'theories'
p889
I1
sS'chicken'
p890
I1
sS'Seeks'
p891
I3
sS'resurgence'
p892
I1
sS'Head'
p893
I1
sS'Champion'
p894
I1
sS'Wolfgang'
p895
I1
sS'supporter'
p896
I2
sS'P10'
p897
I1
sS'Cruz'
p898
I1
sS'Shale'
p899
I1
sS'suspect'
p900
I1
sS'Independence'
p901
I1
sS'goes'
p902
I2
sS'Village'
p903
I1
sS'international'
p904
I1
sS'Francis'
p905
I1
sS'boost'
p906
I1
sS"'response'"
p907
I1
sS"West'"
p908
I1
sS'Mc'
p909
I12
sS'Age'
p910
I4
sS"'detains"
p911
I1
sS'Sharing'
p912
I1
sS'Bellew'
p913
I1
sS'groups'
p914
I1
sS'address'
p915
I2
sS"hadn't"
p916
I1
sS'stem'
p917
I1
sS'My'
p918
I1
sS'change'
p919
I1
sS'Sees'
p920
I1
sS"'Big'"
p921
I1
sS'guilty'
p922
I1
sS'Dead'
p923
I1
sS'husband'
p924
I1
sS'Born'
p925
I1
sS'MP'
p926
I1
sS'MS'
p927
I1
sS'Abdel'
p928
I1
sS'Inc'
p929
I1
sS'Ayesha'
p930
I1
sS'Reprieve'
p931
I1
sS'emerge'
p932
I1
sS'Said'
p933
I1
sS'love'
p934
I1
sS'Justice'
p935
I1
sS"It's"
p936
I3
sS'When'
p937
I2
sS'Show\xe2'
p938
I1
sS'Jerks'
p939
I1
sS'retires'
p940
I2
sS'Jong'
p941
I2
sS'Alberto'
p942
I1
sS'Feminists'
p943
I1
sS'crisis'
p944
I1
sS'Inquest'
p945
I1
sS'Sanders'
p946
I3
sS"review'"
p947
I1
sS'wealth'
p948
I1
sS'working'
p949
I1
sS'Dies'
p950
I2
sS'angry'
p951
I1
sS'La'
p952
I5
sS'Delayed'
p953
I1
sS'Automation'
p954
I1
sS'insider'
p955
I1
sS'live'
p956
I5
sS'Awards'
p957
I2
sS'Bilden'
p958
I1
sS'scope'
p959
I1
sS'today'
p960
I1
sS"Nam's"
p961
I1
sS'Revamped'
p962
I1
sS'Durban'
p963
I1
sS'Ben'
p964
I3
sS'said'
p965
I1
sS'riot'
p966
I1
sS'These'
p967
I3
sS'Mount'
p968
I1
sS'Blew'
p969
I1
sS'Summary'
p970
I1
sS'teaser'
p971
I1
sS'teases'
p972
I1
sS'Time'
p973
I3
sS's\xc2'
p974
I1
sS'Retail'
p975
I1
sS'Latest'
p976
I1
sS'fly'
p977
I2
sS'Duke'
p978
I1
sS'migrants'
p979
I2
sS"wrong'"
p980
I1
sS'Family'
p981
I1
sS'Concise'
p982
I1
sS'German'
p983
I1
sS'car'
p984
I2
sS'abortion'
p985
I1
sS'believes'
p986
I1
sS'reviews'
p987
I1
sS'Prix'
p988
I2
sS'can'
p989
I1
sS'growing'
p990
I1
sS'dispute'
p991
I1
sS'Tells'
p992
I1
sS'Out'
p993
I6
sS'heart'
p994
I3
sS'figure'
p995
I1
sS'mirrors'
p996
I1
sS'Bogle'
p997
I1
sS'Media'
p998
I1
sS'and\xc2'
p999
I2
sS'supremacy'
p1000
I1
sS'death'
p1001
I4
sS'Symphony'
p1002
I1
sS'Dutch'
p1003
I1
sS'Britons'
p1004
I1
sS'offense'
p1005
I1
sS'stole'
p1006
I1
sS'Shows'
p1007
I3
sS'Putin'
p1008
I1
sS'winter'
p1009
I2
sS'Pikachu'
p1010
I1
sS'Who'
p1011
I12
sS'Underwood'
p1012
I1
sS'1'
I5
sS"Won't"
p1013
I1
sS'speaks'
p1014
I1
sS'Why'
p1015
I9
sS'economy'
p1016
I2
sS"Orchestra's"
p1017
I1
sS'ballroom'
p1018
I1
sS"'injustice'"
p1019
I1
sS'may'
p1020
I4
sS'Always'
p1021
I7
sS'spot'
p1022
I1
sS'designed'
p1023
I1
sS'Tump'
p1024
I1
sS'mocks'
p1025
I2
sS'Become'
p1026
I1
sS'Animated'
p1027
I1
sS'data'
p1028
I1
sS'man'
p1029
I1
sS'Large'
p1030
I1
sS'Still'
p1031
I2
sS'Shoes'
p1032
I1
sS'four'
p1033
I1
sS'Fury'
p1034
I1
sS'Series'
p1035
I1
sS'Probe'
p1036
I2
sS'tale'
p1037
I1
sS'Welsh'
p1038
I2
sS'Badminton'
p1039
I2
sS'so'
p1040
I3
sS'Shit'
p1041
I1
sS"'unreal'"
p1042
I1
sS'Ru'
p1043
I1
sS'Worth'
p1044
I1
sS"Amazon's"
p1045
I1
sS"no'"
p1046
I1
sS'Brexit'
p1047
I5
sS'years'
p1048
I3
sS'Earth\xe2'
p1049
I1
sS'Little-Noticed'
p1050
I1
sS'flagships'
p1051
I2
sS'cuts'
p1052
I2
sS'White'
p1053
I9
sS'still'
p1054
I2
sS'blocked'
p1055
I1
sS'RT'
p1056
I1
sS'Direction'
p1057
I1
sS'police'
p1058
I1
sS'monitor'
p1059
I1
sS"he's"
p1060
I2
sS'Cup'
p1061
I8
sS'Unlimited'
p1062
I1
sS"Ruddy's"
p1063
I1
sS'window'
p1064
I1
sS'RB'
p1065
I1
sS'caretaker'
p1066
I1
sS'World'
p1067
I8
sS'Times\xe2'
p1068
I1
sS'Jack'
p1069
I1
sS'toys'
p1070
I1
sS'series\xe2'
p1071
I1
sS'matches'
p1072
I1
sS'Deutsche'
p1073
I1
sS'nation'
p1074
I1
sS'Because'
p1075
I1
sS'She'
p1076
I1
sS'wealthy'
p1077
I1
sS'not'
p1078
I5
sS'feature'
p1079
I1
sS'Tower'
p1080
I1
sS'now'
p1081
I1
sS'killed'
p1082
I2
sS'Executed'
p1083
I1
sS'name'
p1084
I1
sS'Their'
p1085
I8
sS'Skip'
p1086
I1
sS'Wagner'
p1087
I1
sS'Watches'
p1088
I1
sS'Sends'
p1089
I1
sS'Cheats'
p1090
I1
sS'Stanley'
p1091
I1
sS'post-accident'
p1092
I1
sS'Legal'
p1093
I1
sS'Rushes'
p1094
I1
sS'Live'
p1095
I4
sS'year'
p1096
I2
sS'Learned'
p1097
I1
sS'Caroline'
p1098
I1
sS'Eugenie'
p1099
I1
sS'year\xe2'
p1100
I1
sS'Freed'
p1101
I1
sS'hacker'
p1102
I1
sS'Satellite'
p1103
I1
sS'Added'
p1104
I1
sS"'rigged'"
p1105
I1
sS'E-Commerce'
p1106
I1
sS'tensions'
p1107
I1
sS'irony'
p1108
I1
sS"manager's"
p1109
I1
sS'Rosalind'
p1110
I1
sS'investigation'
p1111
I3
sS'Joe'
p1112
I2
sS'hacked'
p1113
I2
sS'internet'
p1114
I1
sS'burglary'
p1115
I1
sS"Foxes'"
p1116
I2
sS'Commerce'
p1117
I1
sS"press'"
p1118
I1
sS'G'
I3
sS'Pregnant'
p1119
I1
sS'lawmaker'
p1120
I2
sS'Arrested'
p1121
I2
sS'Casts'
p1122
I1
sS'million'
p1123
I4
sS'quite'
p1124
I1
sS'Pivots'
p1125
I1
sS'Bobsledder'
p1126
I2
sS'vinyl'
p1127
I1
sS'fifth-round'
p1128
I2
sS'Atletico'
p1129
I1
sS'Security'
p1130
I2
sS'care'
p1131
I8
sS'-Cas9'
p1132
I1
sS'Walking'
p1133
I1
sS'Already'
p1134
I1
sS'Being'
p1135
I1
sS'Tournament'
p1136
I1
sS'roadblocks'
p1137
I1
sS'Nokia\xe2'
p1138
I1
sS'Sign'
p1139
I1
sS'thing'
p1140
I1
sS'massive'
p1141
I3
sS'won\xe2'
p1142
I2
sS'Touch'
p1143
I1
sS'warning'
p1144
I1
sS'think'
p1145
I1
sS'first'
p1146
I4
sS'Even'
p1147
I1
sS'Giant'
p1148
I2
sS'Eric'
p1149
I1
sS'Rumors'
p1150
I1
sS"leaders'"
p1151
I1
sS'Handmaid\xe2'
p1152
I1
sS'one'
p1153
I4
sS'Start'
p1154
I1
sS'Black'
p1155
I1
sS'suspended'
p1156
I1
sS'Harewood'
p1157
I1
sS'vote'
p1158
I2
sS'Hollywood'
p1159
I1
sS'lags'
p1160
I1
sS'GLAAD'
p1161
I1
sS'millions'
p1162
I1
sS'Raggett'
p1163
I1
sS'little'
p1164
I1
sS'Weighing'
p1165
I1
sS'Monday'
p1166
I1
sS'Investigations'
p1167
I1
sS'Each'
p1168
I1
sS'response'
p1169
I1
sS'returns'
p1170
I2
sS'2'
I8
sS'Trek\xe2'
p1171
I1
sS'Asks'
p1172
I1
sS'Date'
p1173
I1
sS'white'
p1174
I2
sS'Repeal'
p1175
I3
sS'1m'
p1176
I1
sS'Response'
p1177
I1
sS'friend'
p1178
I2
sS'Wiki'
p1179
I3
sS'Knockoff'
p1180
I1
sS'Subscribers'
p1181
I1
sS'releases'
p1182
I2
sS'that'
p1183
I7
sS'season'
p1184
I1
sS"men's"
p1185
I1
sS"on'"
p1186
I1
sS"Shell's"
p1187
I1
sS'released'
p1188
I1
sS'Jail'
p1189
I1
sS'Won\xe2'
p1190
I1
sS'Kurt'
p1191
I1
sS"France's"
p1192
I1
sS'than'
p1193
I2
sS'Opts'
p1194
I1
sS'inventor'
p1195
I1
sS'10'
p1196
I5
sS'13'
p1197
I3
sS'15'
p1198
I1
sS'14'
p1199
I2
sS'17'
p1200
I5
sS'19'
p1201
I1
sS'18'
p1202
I1
sS'27-year'
p1203
I1
sS"Furious'"
p1204
I1
sS'future'
p1205
I2
sS'authored'
p1206
I1
sS'Fake'
p1207
I2
sS'Aggression'
p1208
I1
sS'and'
p1209
I56
sS'Fly'
p1210
I1
sS'Fails'
p1211
I2
sS'Court'
p1212
I1
sS'investors'
p1213
I1
sS'reviewing'
p1214
I1
sS"'SNL'"
p1215
I1
sS'Grand'
p1216
I2
sS'turned'
p1217
I1
sS'DC'
p1218
I1
sS'Submit'
p1219
I1
sS'say'
p1220
I2
sS'conspiracy'
p1221
I2
sS'Paying'
p1222
I1
sS'Calm'
p1223
I1
sS'sells'
p1224
I1
sS'blunder'
p1225
I1
sS'Venezuela'
p1226
I1
sS'0-1'
p1227
I1
sS'Do'
p1228
I2
sS'Shaun'
p1229
I1
sS"Colbert's"
p1230
I2
sS'De'
p1231
I1
sS'Richest'
p1232
I1
sS'Meddling'
p1233
I1
sS'zoo'
p1234
I1
sS'squad'
p1235
I2
sS'take'
p1236
I1
sS'online'
p1237
I1
sS'Investor'
p1238
I1
sS'switching'
p1239
I1
sS'Sean'
p1240
I1
sS'Cubes'
p1241
I1
sS'Trump\xe2'
p1242
I6
sS'Name'
p1243
I1
sS'closes'
p1244
I1
sS'track'
p1245
I2
sS'knew'
p1246
I2
sS'fails'
p1247
I1
sS'paid'
p1248
I1
sS'Rallies'
p1249
I1
sS'complaints'
p1250
I1
sS'DHS'
p1251
I1
sS'GOP'
p1252
I9
sS'glamour'
p1253
I1
sS"science'"
p1254
I1
sS'later'
p1255
I1
sS'Allegations'
p1256
I1
sS'Fuck'
p1257
I1
sS'Seconds'
p1258
I1
sS'Groceries'
p1259
I1
sS'Film'
p1260
I1
sS"kiss'"
p1261
I1
sS'senior'
p1262
I1
sS'Breaks'
p1263
I1
sS'Broncos'
p1264
I1
sS'shot'
p1265
I1
sS'show'
p1266
I2
sS'Character'
p1267
I1
sS'What'
p1268
I9
sS'WH'
p1269
I1
sS"Macron's"
p1270
I2
sS'hack'
p1271
I1
sS'Stephen'
p1272
I3
sS'one-frame'
p1273
I1
sS'Democrats\xe2'
p1274
I1
sS'fifth'
p1275
I1
sS'ground'
p1276
I1
sS'Wants'
p1277
I2
sS'We'
p1278
I4
sS'Woman'
p1279
I3
sS'title'
p1280
I1
sS'Feisty'
p1281
I1
sS'behind'
p1282
I1
sS'crime'
p1283
I1
sS'honors'
p1284
I1
sS'only'
p1285
I2
sS'going'
p1286
I2
sS'black'
p1287
I2
sS'altercation'
p1288
I1
sS'Earth-like\xc2'
p1289
I1
sS'get'
p1290
I5
sS'Amid'
p1291
I1
sS'attacking'
p1292
I1
sS'Away\xe2'
p1293
I1
sS'Hilariously'
p1294
I1
sS'Turn'
p1295
I1
sS'killers'
p1296
I1
sS'nearly'
p1297
I1
sS'Amit'
p1298
I1
sS'Amir'
p1299
I1
sS'prime'
p1300
I1
sS'Right'
p1301
I1
sS'resource'
p1302
I1
sS"disabled'"
p1303
I1
sS'Striking'
p1304
I1
sS'Fucking'
p1305
I1
sS'Brutally'
p1306
I1
sS'worried'
p1307
I1
sS'jokes'
p1308
I1
sS'Manchester'
p1309
I3
sS'bombs'
p1310
I1
sS'Allen'
p1311
I1
sS'Education'
p1312
I1
sS'vision'
p1313
I1
sS'declared'
p1314
I1
sS'committee'
p1315
I2
sS'next\xc2'
p1316
I1
sS'dismantling'
p1317
I1
sS'up'
p1318
I10
sS"job'"
p1319
I1
sS'elected'
p1320
I1
sS'Preachers'
p1321
I1
sS'press\xc2'
p1322
I1
sS'college'
p1323
I1
sS"'vulnerable'"
p1324
I1
sS'seal'
p1325
I1
sS"'There"
p1326
I1
sS'Hindenburg'
p1327
I1
sS'wonder'
p1328
I1
sS'outclasses'
p1329
I1
sS'detect'
p1330
I1
sS'That'
p1331
I10
sS'federal'
p1332
I1
sS'review'
p1333
I2
sS'Elon'
p1334
I1
sS'child'
p1335
I1
sS'Hours'
p1336
I1
sS'3'
I2
sS'Leeds'
p1337
I1
sS'roots'
p1338
I1
sS'between'
p1339
I1
sS'bombing'
p1340
I1
sS'Than'
p1341
I1
sS"'mixed"
p1342
I1
sS'notice'
p1343
I1
sS'jobs'
p1344
I1
sS'Target'
p1345
I2
sS'Johnson'
p1346
I1
sS'screen'
p1347
I1
sS'allegations'
p1348
I1
sS'rapidly'
p1349
I1
sS'Paid'
p1350
I1
sS'Compete'
p1351
I1
sS'Were'
p1352
I2
sS'March'
p1353
I3
sS'killing'
p1354
I1
sS"'pending"
p1355
I1
sS'Grounds'
p1356
I1
sS'reaction'
p1357
I1
sS'Post-Tillerson'
p1358
I1
sS'rugby'
p1359
I1
sS'Give'
p1360
I1
sS'many'
p1361
I2
sS'Kane'
p1362
I1
sS'job'
p1363
I3
sS'Malaysia'
p1364
I1
sS'Saracens'
p1365
I1
sS'workplace'
p1366
I1
sS"'Aliens"
p1367
I1
sS'senator'
p1368
I1
sS'wheels'
p1369
I1
sS"can't"
p1370
I1
sS'deported'
p1371
I1
sS"'The"
p1372
I3
sS'among'
p1373
I3
sS'Death'
p1374
I1
sS'Jeremy'
p1375
I3
sS'provocation'
p1376
I1
sS'cancer'
p1377
I1
sS'Unsettling'
p1378
I1
sS'Pictures'
p1379
I2
sS'Team'
p1380
I1
sS'Sachs'
p1381
I1
sS'15-year-old'
p1382
I1
sS'61'
p1383
I2
sS'Co-Founders'
p1384
I1
sS'grants'
p1385
I1
sS'pundits'
p1386
I1
sS'3310'
p1387
I1
sS'Leader'
p1388
I1
sS'custody'
p1389
I1
sS'math'
p1390
I1
sS'Buy'
p1391
I1
sS"Liverpool's"
p1392
I1
sS'Beauty'
p1393
I1
sS'bitter'
p1394
I1
sS'lawsuit'
p1395
I1
sS'Downgrades'
p1396
I1
sS'absence'
p1397
I1
sS'But'
p1398
I3
sS'breath'
p1399
I1
sS'Tanks'
p1400
I1
sS'Doctors'
p1401
I2
sS"Weeknd's"
p1402
I1
sS'500'
p1403
I4
sS'wants'
p1404
I3
sS'tournament'
p1405
I2
sS'Brentford'
p1406
I1
sS'Luring'
p1407
I1
sS'Trump-Russia'
p1408
I2
sS'dramatic'
p1409
I1
sS'minister'
p1410
I1
sS'Haram'
p1411
I5
sS'Round'
p1412
I1
sS'case'
p1413
I2
sS'To'
p1414
I4
sS'Tribe\xc2'
p1415
I1
sS'Birmingham'
p1416
I1
sS'polls'
p1417
I1
sS'sex'
p1418
I2
sS"coup'"
p1419
I1
sS'alter'
p1420
I1
sS'cast'
p1421
I1
sS'Edward'
p1422
I1
sS'Marshals'
p1423
I1
sS'Dreamed'
p1424
I1
sS'Kellyanne\xc2'
p1425
I1
sS'landslide'
p1426
I1
sS'Open'
p1427
I4
sS'Disappear'
p1428
I1
sS'Slow'
p1429
I1
sS'Slop'
p1430
I1
sS'Reaction'
p1431
I1
sS'waiting\xc2'
p1432
I1
sS'Tennis'
p1433
I1
sS'Referendum'
p1434
I1
sS'Forty-Nine'
p1435
I1
sS'Looking'
p1436
I2
sS'Charge'
p1437
I1
sS'Generals'
p1438
I1
sS'Prey'
p1439
I2
sS'life\xc2'
p1440
I1
sS'rally'
p1441
I3
sS'Common'
p1442
I1
sS'technology'
p1443
I1
sS'Division'
p1444
I1
sS'different'
p1445
I1
sS'Plans'
p1446
I4
sS'pay'
p1447
I2
sS'Protesters'
p1448
I1
sS'nomination'
p1449
I2
sS'speech'
p1450
I3
sS'angered'
p1451
I1
sS'Disappointed'
p1452
I1
sS'week'
p1453
I3
sS"They're"
p1454
I1
sS'oil'
p1455
I1
sS'Zuckerberg\xe2'
p1456
I1
sS'I'
I5
sS'IP'
p1457
I1
sS'Rowing'
p1458
I1
sS'Toyota'
p1459
I1
sS'Barcelona'
p1460
I4
sS'Outfits'
p1461
I1
sS'director'
p1462
I1
sS'on-stage'
p1463
I1
sS'IRL'
p1464
I1
sS'IRA'
p1465
I1
sS"been'"
p1466
I1
sS'ID'
p1467
I1
sS"Overkill's"
p1468
I1
sS'Own'
p1469
I1
sS'Says'
p1470
I16
sS'charges'
p1471
I1
sS'Is'
p1472
I10
sS'constitutional'
p1473
I1
sS'It'
p1474
I6
sS'May'
p1475
I3
sS'accountable'
p1476
I1
sS'21'
p1477
I1
sS'In'
p1478
I12
sS'Nazi'
p1479
I1
sS'Hippopotamus'
p1480
I1
sS'duty'
p1481
I1
sS'United'
p1482
I6
sS'Service'
p1483
I1
sS'Prove'
p1484
I1
sS'Ways'
p1485
I1
sS'Ping'
p1486
I1
sS'Chooses'
p1487
I1
sS'Pine'
p1488
I2
sS'Possible'
p1489
I1
sS'Reduction'
p1490
I1
sS'on\xc2'
p1491
I1
sS'kill'
p1492
I3
sS'planets'
p1493
I1
sS'positions'
p1494
I1
sS'touch'
p1495
I1
sS'Might'
p1496
I2
sS'Surge'
p1497
I1
sS'EPA'
p1498
I2
sS'Debt'
p1499
I1
sS'renewed'
p1500
I1
sS'clueless'
p1501
I1
sS'Her'
p1502
I1
sS"'undermines"
p1503
I1
sS"we've"
p1504
I1
sS'Zuckerberg'
p1505
I1
sS'Malek'
p1506
I1
sS'4'
I4
sS'aborts'
p1507
I1
sS'Jong-nam'
p1508
I3
sS'Jaziri'
p1509
I1
sS'around'
p1510
I3
sS'rules'
p1511
I3
sS'Uber\xe2'
p1512
I2
sS'Monk'
p1513
I1
sS'Tackles'
p1514
I1
sS'dark'
p1515
I2
sS'Wasted'
p1516
I1
sS'traffic'
p1517
I1
sS'mom'
p1518
I1
sS'parody'
p1519
I1
sS'world'
p1520
I3
sS'Christian'
p1521
I1
sS'SVP'
p1522
I1
sS'8-year-old'
p1523
I1
sS'Shark'
p1524
I1
sS'Bellingham'
p1525
I1
sS'Shot'
p1526
I2
sS'Usada'
p1527
I1
sS'Produces'
p1528
I1
sS'Share'
p1529
I1
sS'Hacks'
p1530
I1
sS'facing'
p1531
I1
sS'Haass'
p1532
I1
sS'benefit'
p1533
I1
sS't'
I7
sS'Thesis'
p1534
I1
sS'Hack'
p1535
I1
sS'Operation'
p1536
I1
sS'Macron\xe2'
p1537
I5
sS'Before'
p1538
I2
sS'Democracy'
p1539
I1
sS'Pinterest'
p1540
I1
sS'West'
p1541
I4
sS'Skew'
p1542
I1
sS'Dinner'
p1543
I1
sS'Mark'
p1544
I2
sS'Pressures'
p1545
I1
sS'Amazing'
p1546
I1
sS'Marr'
p1547
I1
sS'respect'
p1548
I1
sS'Destroy'
p1549
I1
sS'Swansea'
p1550
I3
sS'Attorney'
p1551
I2
sS'dimensions'
p1552
I1
sS'Prosecutions'
p1553
I1
sS'Men'
p1554
I1
sS'legal'
p1555
I1
sS'conservative'
p1556
I1
sS"'football"
p1557
I1
sS'critical'
p1558
I1
sS'hipster'
p1559
I1
sS'Projects'
p1560
I1
sS'freed'
p1561
I3
sS'Term'
p1562
I1
sS'outage'
p1563
I1
sS'sixth'
p1564
I1
sS'Expanded'
p1565
I1
sS'Hamann'
p1566
I1
sS'Premiership'
p1567
I1
sS"You'll"
p1568
I1
sS'leadership'
p1569
I1
sS'Paire'
p1570
I1
sS'PI'
p1571
I1
sS'found'
p1572
I2
sS'Ivanka'
p1573
I1
sS'exciting'
p1574
I1
sS'shocking'
p1575
I1
sS"'the"
p1576
I2
sS'on'
p1577
I56
sS'Fabregas'
p1578
I1
sS'of'
p1579
I88
sS'industry'
p1580
I2
sS'fringe'
p1581
I1
sS'Trade'
p1582
I2
sS'Wednesbury'
p1583
I1
sS'stand'
p1584
I2
sS'Draymond'
p1585
I1
sS'Laments'
p1586
I1
sS'or'
p1587
I5
sS'organizers'
p1588
I1
sS'Story'
p1589
I1
sS'No'
p1590
I2
sS'Memories'
p1591
I1
sS'Garth'
p1592
I1
sS'La\xc2'
p1593
I1
sS'accounts'
p1594
I1
sS'Luxury'
p1595
I1
sS'watchdog'
p1596
I1
sS'Massive\xe2'
p1597
I1
sS'your'
p1598
I1
sS'Week'
p1599
I6
sS'2DS'
p1600
I1
sS'Norma'
p1601
I1
sS'Hotel'
p1602
I1
sS'start'
p1603
I1
sS'low'
p1604
I2
sS'stars'
p1605
I1
sS'Fucked-Up'
p1606
I1
sS'Obama'
p1607
I1
sS'Hannover'
p1608
I2
sS'J'
I1
sS"gladiators'"
p1609
I1
sS'announcement'
p1610
I2
sS'Harry'
p1611
I1
sS'clones'
p1612
I1
sS'lampoons'
p1613
I1
sS'trying'
p1614
I1
sS'with'
p1615
I17
sS'Guide'
p1616
I4
sS'Recuse'
p1617
I1
sS'IICSA'
p1618
I1
sS'Wrap'
p1619
I1
sS'rush'
p1620
I1
sS'Hales'
p1621
I1
sS'House'
p1622
I16
sS'sci-fi\xe2'
p1623
I1
sS'Foxes'
p1624
I2
sS"'Class'"
p1625
I1
sS'Eddie'
p1626
I1
sS'Joseph'
p1627
I1
sS'Samsung\xe2'
p1628
I1
sS'Close'
p1629
I1
sS'FBI'
p1630
I1
sS'Crisis'
p1631
I2
sS'Special'
p1632
I3
sS"'control'"
p1633
I1
sS'leaked'
p1634
I2
sS'ad'
p1635
I2
sS'USA'
p1636
I2
sS'Space'
p1637
I7
sS'Gustavito'
p1638
I1
sS'sales'
p1639
I1
sS'an'
p1640
I5
sS'Flight'
p1641
I1
sS'How'
p1642
I6
sS'as'
p1643
I34
sS'reliability'
p1644
I1
sS'at'
p1645
I33
sS'breathing\xc2'
p1646
I1
sS'enterprise-friendly'
p1647
I1
sS'politics'
p1648
I2
sS'Real'
p1649
I1
sS'pre-season'
p1650
I1
sS'Quavo'
p1651
I1
sS'Read'
p1652
I1
sS'Survival'
p1653
I1
sS'Burnley'
p1654
I2
sS'premiums'
p1655
I1
sS'Lab'
p1656
I1
sS'Dark'
p1657
I2
sS'field'
p1658
I1
sS'Watson'
p1659
I2
sS'Teases'
p1660
I1
sS'5'
I8
sS'he\xe2'
p1661
I1
sS'you'
p1662
I3
sS'Ross'
p1663
I1
sS'Kidnapped'
p1664
I1
sS'al'
p1665
I1
sS'At'
p1666
I4
sS'Kurdish'
p1667
I1
sS'Climate'
p1668
I1
sS'Suffers'
p1669
I1
sS'Alex'
p1670
I3
sS'parkour'
p1671
I1
sS'students'
p1672
I1
sS'Hoppers'
p1673
I1
sS'finale'
p1674
I1
sS'Fernando'
p1675
I1
sS'Literary'
p1676
I1
sS'important'
p1677
I1
sS'Payments'
p1678
I1
sS'coverage'
p1679
I2
sS'CNN'
p1680
I32
sS"'Toy"
p1681
I1
sS'Nations'
p1682
I7
sS'mix-up'
p1683
I3
sS'pool'
p1684
I1
sS'building'
p1685
I1
sS'mourned'
p1686
I1
sS'Major'
p1687
I2
sS'Vardy'
p1688
I1
sS'calls'
p1689
I4
sS'Credit'
p1690
I1
sS'Reasons'
p1691
I1
sS'invest'
p1692
I1
sS'Explained'
p1693
I3
sS'3-1'
p1694
I3
sS'posts'
p1695
I1
sS'Street'
p1696
I3
sS'Year'
p1697
I4
sS'coordinated\xe2'
p1698
I1
sS'Harassment'
p1699
I1
sS'Halts'
p1700
I1
sS'all'
p1701
I3
sS'Van'
p1702
I1
sS'skeleton'
p1703
I1
sS'ESPN'
p1704
I2
sS'Unknown'
p1705
I1
sS'Fix'
p1706
I2
sS'Obamacare'
p1707
I7
sS'Moon'
p1708
I2
sS'earners'
p1709
I1
sS'Take'
p1710
I1
sS'talks'
p1711
I2
sS'follow'
p1712
I1
sS'religious'
p1713
I1
sS'carpet'
p1714
I2
sS'Brown'
p1715
I1
sS'Elli'
p1716
I1
sS'Championship'
p1717
I1
sS'gymnast'
p1718
I1
sS'subjected'
p1719
I1
sS'NCAA'
p1720
I1
sS'insulate'
p1721
I1
sS'Evil'
p1722
I1
sS'former'
p1723
I3
sS'pricing'
p1724
I1
sS'to'
p1725
I150
sS'Disney'
p1726
I1
sS'lawmakers'
p1727
I1
sS'Backlash'
p1728
I1
sS'Christians'
p1729
I1
sS'4-0'
p1730
I1
sS'very'
p1731
I1
sS'Indies'
p1732
I2
sS'horror'
p1733
I1
sS'Huawei\xe2'
p1734
I1
sS'worst'
p1735
I2
sS'decide'
p1736
I2
sS'surprise'
p1737
I1
sS'labor'
p1738
I1
sS'Economy'
p1739
I1
sS'condition'
p1740
I1
sS'Joshua'
p1741
I1
sS"Don't"
p1742
I4
sS"'scum'"
p1743
I1
sS'Hartlepool'
p1744
I1
sS'Retire'
p1745
I1
sS'list'
p1746
I3
sS"'must"
p1747
I1
sS'Tesla'
p1748
I3
sS'Kill'
p1749
I2
sS'Carpet'
p1750
I1
sS'Impact'
p1751
I2
sS'Town'
p1752
I1
sS'grabs'
p1753
I1
sS'Should'
p1754
I2
sS'Films'
p1755
I2
sS'pass'
p1756
I1
sS'Circle'
p1757
I1
sS'Ferrell'
p1758
I1
sS"Trump's"
p1759
I9
sS'what'
p1760
I4
sS'Korea'
p1761
I7
sS'Sportsday'
p1762
I1
sS'Tried'
p1763
I1
sS'Releases'
p1764
I1
sS'Entitlement'
p1765
I1
sS'Stokes'
p1766
I1
sS'ovarian'
p1767
I1
sS"'too"
p1768
I1
sS'Released'
p1769
I1
sS'version'
p1770
I1
sS'companion'
p1771
I1
sS'Conservatives'
p1772
I1
sS'Worked'
p1773
I1
sS'public'
p1774
I2
sS'full'
p1775
I1
sS'Prosecutors'
p1776
I1
sS'Ahead'
p1777
I2
sS'Sylvester'
p1778
I1
sS'Finland'
p1779
I1
sS'Shortage'
p1780
I1
sS'Briefing'
p1781
I1
sS'praises'
p1782
I1
sS'strong'
p1783
I1
sS'Bluster'
p1784
I1
sS'Spencer'
p1785
I1
sS'search'
p1786
I1
sS"'most"
p1787
I2
sS'Limos'
p1788
I1
sS'ahead'
p1789
I2
sS'novella'
p1790
I1
sS'creepy'
p1791
I1
sS'round'
p1792
I1
sS'airport'
p1793
I1
sS'breakdown'
p1794
I1
sS'misery'
p1795
I1
sS'action'
p1796
I1
sS'Jared'
p1797
I2
sS'Border'
p1798
I1
sS'options'
p1799
I1
sS'come'
p1800
I1
sS'Victor'
p1801
I1
sS'sticking'
p1802
I1
sS'career'
p1803
I1
sS'S8'
p1804
I2
sS'family'
p1805
I5
sS'S3'
p1806
I1
sS'Things'
p1807
I2
sS'Top'
p1808
I2
sS'Watergate-style'
p1809
I1
sS'screens'
p1810
I1
sS'ask'
p1811
I1
sS'send'
p1812
I1
sS'music\xc2'
p1813
I1
sS'pulls'
p1814
I1
sS'Nigeria'
p1815
I6
sS'armed'
p1816
I1
sS'teach'
p1817
I1
sS'select'
p1818
I1
sS"Hamas'"
p1819
I1
sS'Europe'
p1820
I2
sS'Male'
p1821
I1
sS'takes'
p1822
I4
sS'Italy'
p1823
I4
sS'two'
p1824
I5
sS'FCC'
p1825
I2
sS'Peak'
p1826
I1
sS'Geert'
p1827
I1
sS'Coming'
p1828
I1
sS'Russian'
p1829
I3
sS'injury'
p1830
I1
sS'more'
p1831
I6
sS'Boeing'
p1832
I1
sS'Intel'
p1833
I1
sS"changes'"
p1834
I1
sS'El'
p1835
I1
sS'Hails'
p1836
I1
sS'company'
p1837
I1
sS'Wyatt'
p1838
I1
sS'terror'
p1839
I2
sS'American'
p1840
I5
sS'So'
p1841
I1
sS"Babes'"
p1842
I1
sS'benefits'
p1843
I2
sS"Netflix's"
p1844
I1
sS'Seamus'
p1845
I1
sS"Live'"
p1846
I2
sS'Better'
p1847
I1
sS'Haniyeh'
p1848
I1
sS'SU'
p1849
I1
sS'Udemy'
p1850
I1
sS'vs'
p1851
I1
sS'v'
I7
sS'Wade'
p1852
I2
sS'Himself'
p1853
I2
sS'Your'
p1854
I3
sS'history'
p1855
I4
sS'beautiful'
p1856
I1
sS'Funny'
p1857
I2
sS'shark'
p1858
I1
sS'IBM'
p1859
I1
sS'pushes'
p1860
I1
sS'adviser'
p1861
I3
sS'final'
p1862
I3
sS"'untrue'"
p1863
I1
sS'Told'
p1864
I1
sS'moon'
p1865
I2
sS'Chao'
p1866
I1
sS'Sharapova'
p1867
I1
sS'protects'
p1868
I1
sS'Teens'
p1869
I1
sS'huge'
p1870
I1
sS'needs'
p1871
I1
sS'awkward'
p1872
I1
sS'Opening'
p1873
I1
sS'Bonus'
p1874
I2
sS'speedboat'
p1875
I1
sS'breaking'
p1876
I1
sS'reject'
p1877
I1
sS'Lower'
p1878
I1
sS'orchestrator'
p1879
I1
sS'2\xe2'
p1880
I4
sS'1970s'
p1881
I1
sS'List'
p1882
I1
sS'Israel'
p1883
I2
sS'Campaign-level'
p1884
I1
sS'tries'
p1885
I2
sS'CRISPR'
p1886
I1
sS'Kelly'
p1887
I3
sS'Syria'
p1888
I1
sS'Ospreys'
p1889
I1
sS'Chair'
p1890
I1
sS'America\xe2'
p1891
I2
sS'a'
I58
sS'short'
p1892
I1
sS'quietly'
p1893
I1
sS'Mexico'
p1894
I1
sS'racetrack'
p1895
I1
sS'Brennan'
p1896
I1
sS'Beat'
p1897
I1
sS'Democrats'
p1898
I2
sS'media'
p1899
I4
sS'dream'
p1900
I2
sS'Marathon'
p1901
I2
sS"that's"
p1902
I1
sS'Arsene'
p1903
I1
sS'chicks'
p1904
I1
sS'Horse'
p1905
I2
sS'Alliance'
p1906
I1
sS'help'
p1907
I1
sS'People\xe2'
p1908
I1
sS"don't"
p1909
I2
sS'trade'
p1910
I1
sS'wide-ranging'
p1911
I1
sS'radar'
p1912
I1
sS'Jewish'
p1913
I2
sS'through'
p1914
I1
sS'carers'
p1915
I1
sS'Wilders'
p1916
I1
sS'its'
p1917
I7
sS'Texas'
p1918
I2
sS'25'
p1919
I1
sS'27'
p1920
I1
sS'20'
p1921
I2
sS'Working'
p1922
I1
sS'Stein'
p1923
I1
sS'Berners-Lee'
p1924
I1
sS'pray'
p1925
I1
sS'Why\xe2'
p1926
I1
sS'29'
p1927
I1
sS'actually'
p1928
I1
sS'late'
p1929
I1
sS'Kimi'
p1930
I1
sS'Losing'
p1931
I1
sS'inquiry'
p1932
I2
sS'might'
p1933
I2
sS'CHECK'
p1934
I1
sS'Blood'
p1935
I1
sS'Knock'
p1936
I2
sS'return'
p1937
I2
sS'seeking'
p1938
I1
sS'propose'
p1939
I2
sS'Michael'
p1940
I2
sS'Worried'
p1941
I1
sS'framework'
p1942
I1
sS'Bad'
p1943
I1
sS'NFL'
p1944
I1
sS'foot'
p1945
I1
sS'Senior'
p1946
I1
sS'speculate'
p1947
I1
sS'bigger'
p1948
I1
sS'Pussycats'
p1949
I1
sS"'Islamofascism'"
p1950
I1
sS'always'
p1951
I3
sS'Aliens'
p1952
I1
sS'Potter'
p1953
I1
sS'Hornet\xe2'
p1954
I1
sS'spy'
p1955
I1
sS'Council'
p1956
I1
sS'Scottish'
p1957
I2
sS'2m'
p1958
I1
sS'fairy'
p1959
I1
sS'Poll'
p1960
I1
sS'Hospitals'
p1961
I1
sS"isn't"
p1962
I3
sS'status'
p1963
I1
sS'End'
p1964
I2
sS'mental'
p1965
I1
sS'Canon'
p1966
I1
sS'Saints'
p1967
I2
sS'Zelda'
p1968
I2
sS'him'
p1969
I1
sS'Debra'
p1970
I1
sS'Mud'
p1971
I1
sS'finish'
p1972
I2
sS'Surface'
p1973
I1
sS'Federer'
p1974
I1
sS'Reading'
p1975
I1
sS"'Hundreds'"
p1976
I1
sS'More'
p1977
I5
sS'Lowest'
p1978
I1
sS'Picture'
p1979
I2
sS'dominates'
p1980
I1
sS'funding'
p1981
I1
sS'since'
p1982
I3
sS'publish'
p1983
I1
sS'Movie'
p1984
I1
sS'Defense'
p1985
I1
sS'health'
p1986
I11
sS'Israeli-Palestinian'
p1987
I1
sS'7'
I1
sS'Report'
p1988
I1
sS'issue'
p1989
I1
sS'Coral'
p1990
I1
sS'off-screen'
p1991
I1
sS'Ukraine'
p1992
I2
sS'Criticize'
p1993
I1
sS'Hour'
p1994
I1
sS'driver'
p1995
I1
sS'Squeezes'
p1996
I1
sS'Nine'
p1997
I1
sS'members'
p1998
I1
sS'EU'
p1999
I2
sS'Serious'
p2000
I1
sS'EW'
p2001
I1
sS'rises'
p2002
I1
sS'Lavrov'
p2003
I1
sS'Delete'
p2004
I1
sS'producers'
p2005
I1
sS'owners'
p2006
I1
sS'XCIX'
p2007
I1
sS'service'
p2008
I1
sS'Evans'
p2009
I2
sS'People'
p2010
I4
sS'Boston'
p2011
I2
sS'modularity'
p2012
I1
sS'success'
p2013
I1
sS'Years'
p2014
I3
sS'Past'
p2015
I1
sS'Freaked'
p2016
I1
sS'Kellyanne'
p2017
I2
sS'NASA'
p2018
I1
sS'Expect'
p2019
I1
sS'threat'
p2020
I2
sS'mercilessly'
p2021
I1
sS'progressives'
p2022
I1
sS'apocalypse'
p2023
I1
sS'fallen'
p2024
I1
sS'Dietmar'
p2025
I1
sS'Konta'
p2026
I2
sS'number'
p2027
I1
sS'Goes'
p2028
I2
sS'Triggs-Hodge'
p2029
I1
sS'horse'
p2030
I1
sS'heads'
p2031
I1
sS'flub'
p2032
I1
sS'Rudd'
p2033
I1
sS'Becomes'
p2034
I1
sS'least'
p2035
I1
sS'Cheers'
p2036
I1
sS'strategy'
p2037
I1
sS"'defeats"
p2038
I1
sS'storm'
p2039
I1
sS'Everton'
p2040
I2
sS'Gras'
p2041
I1
sS'Cummings'
p2042
I1
sS'selling'
p2043
I1
sS'XL'
p2044
I1
sS"'really"
p2045
I1
sS'Raul'
p2046
I1
sS'part'
p2047
I1
sS'Gamblers'
p2048
I1
sS'Lookin'
p2049
I1
sS'Embarrassing'
p2050
I1
sS'Tax-Reporting'
p2051
I1
sS'waterproofing'
p2052
I1
sS'season\xc2'
p2053
I1
sS"d'Italia"
p2054
I1
sS'defends'
p2055
I2
sS'Resident'
p2056
I1
sS'Officials'
p2057
I1
sS'marriage'
p2058
I2
sS'2022'
p2059
I1
sS'Reunion'
p2060
I1
sS'bobsled'
p2061
I1
sS'taxis'
p2062
I1
sS'declare'
p2063
I1
sS'motivation'
p2064
I1
sS'first-round'
p2065
I1
sS'Kinnon'
p2066
I1
sS'SEAL'
p2067
I2
sS'Connell'
p2068
I1
sS'Projected'
p2069
I1
sS'Breath'
p2070
I2
sS'don\xe2'
p2071
I2
sS'Eighty-two'
p2072
I1
sS'Forge'
p2073
I1
sS'Penn'
p2074
I2
sS'Dozens'
p2075
I1
sS'hopelessly'
p2076
I1
sS'Supporters'
p2077
I1
sS'Power'
p2078
I1
sS'dancing'
p2079
I1
sS'Food'
p2080
I1
sS'assails'
p2081
I1
sS'Exploit'
p2082
I1
sS'Key'
p2083
I2
sS'lifts'
p2084
I1
sS'Germany'
p2085
I3
sS"plots'"
p2086
I1
sS'Kim'
p2087
I6
sS'Junkyard'
p2088
I1
sS'With'
p2089
I10
sS'Spirit'
p2090
I1
sS'play'
p2091
I1
sS"correspondents'"
p2092
I2
sS'Episode'
p2093
I3
sS'exec'
p2094
I1
sS'approves'
p2095
I1
sS'measures'
p2096
I1
sS"'Meg'"
p2097
I1
sS'Kentucky'
p2098
I12
sS'most'
p2099
I3
sS'Chief'
p2100
I3
sS'charm'
p2101
I1
sS'plan'
p2102
I2
sS'enduring'
p2103
I1
sS'Concepts'
p2104
I1
sS'Coptic'
p2105
I1
sS'reunites'
p2106
I1
sS'The'
p2107
I41
sS'I\xe2'
p2108
I1
sS'hands-on'
p2109
I1
sS'Called'
p2110
I1
sS'Restore'
p2111
I1
sS'\xe2'
I70
sS'mobile'
p2112
I1
sS'Alexis'
p2113
I1
sS'If'
p2114
I4
sS'dragged'
p2115
I1
sS'Cloud'
p2116
I1
sS'Stands'
p2117
I1
sS'gold'
p2118
I1
sS"'brain"
p2119
I1
sS'Trials'
p2120
I2
sS"'at"
p2121
I1
sS'Had'
p2122
I2
sS'Genes'
p2123
I1
sS'Galaxy\xc2'
p2124
I1
sS'session'
p2125
I1
sS'Hill'
p2126
I2
sS'Flintoff'
p2127
I1
sS'Has'
p2128
I3
sS'fine'
p2129
I1
sS'find'
p2130
I2
sS'costing'
p2131
I1
sS'Affordable'
p2132
I1
sS'cell'
p2133
I2
sS'giant'
p2134
I1
sS'rocket'
p2135
I1
sS'Premiere'
p2136
I1
sS'French'
p2137
I24
sS'failed'
p2138
I1
sS'8'
I2
sS'Pool'
p2139
I1
sS'giants'
p2140
I1
sS'sacking'
p2141
I3
sS'Conservatives\xe2'
p2142
I1
sS'his'
p2143
I2
sS'hit'
p2144
I1
sS'Ex-boxer'
p2145
I2
sS'banned'
p2146
I2
sS'That\xe2'
p2147
I1
sS'While'
p2148
I1
sS'peril'
p2149
I1
sS'valuable'
p2150
I1
sS'nominee'
p2151
I3
sS'Paxton'
p2152
I3
sS'during'
p2153
I3
sS'Hotspur'
p2154
I1
sS'emails'
p2155
I2
sS"'very"
p2156
I1
sS'Access'
p2157
I1
sS'Olympic'
p2158
I5
sS'Help'
p2159
I2
sS"Pence's"
p2160
I1
sS"'did"
p2161
I1
sS"Kushner's"
p2162
I1
sS'banking'
p2163
I1
sS'investigate'
p2164
I3
sS'spiked'
p2165
I1
sS'Female'
p2166
I1
sS'Craig'
p2167
I1
sS'Lions'
p2168
I2
sS'Equating'
p2169
I1
sS'set'
p2170
I3
sS'For'
p2171
I7
sS'achieved'
p2172
I1
sS'declines'
p2173
I1
sS'Create'
p2174
I1
sS'Nomi'
p2175
I1
sS'startup'
p2176
I2
sS'Chaos'
p2177
I4
sS'France'
p2178
I10
sS'Auditions'
p2179
I1
sS'see'
p2180
I1
sS'are'
p2181
I10
sS'sea'
p2182
I1
sS'Correspondents'
p2183
I1
sS'Firms'
p2184
I1
sS'Presidency'
p2185
I1
sS'Markets'
p2186
I4
sS'Blair'
p2187
I1
sS'fans'
p2188
I1
sS'won'
p2189
I2
sS'Clones'
p2190
I1
sS'probably'
p2191
I1
sS"'real"
p2192
I1
sS'Mo'
p2193
I2
sS'celebrity'
p2194
I1
sS'Southampton'
p2195
I1
sS'Hostile'
p2196
I1
sS'Blackburn'
p2197
I2
sS'Moroccans'
p2198
I1
sS's'
I48
sS'Could'
p2199
I7
sS'Florida'
p2200
I2
sS'Against'
p2201
I1
sS'Departs'
p2202
I1
sS'tuitions'
p2203
I1
sS'Anew'
p2204
I1
sS'Tale'
p2205
I1
sS'Jobs'
p2206
I2
sS'Makes'
p2207
I1
sS'Hemsworth'
p2208
I1
sS'Mardi'
p2209
I1
sS'league'
p2210
I1
sS'Unexpected'
p2211
I1
sS'Neil'
p2212
I1
sS'restaurant'
p2213
I1
sS'Hard'
p2214
I1
sS"Snap's"
p2215
I2
sS"spirit'"
p2216
I1
sS'became'
p2217
I1
sS'Mosul'
p2218
I1
sS'scams'
p2219
I1
sS'Green'
p2220
I1
sS'Yes'
p2221
I1
sS'Graham'
p2222
I1
sS'Denies'
p2223
I2
sS'reasons'
p2224
I3
sS"'Twister'"
p2225
I1
sS'community'
p2226
I2
sS'Nobel'
p2227
I1
sS'Korbut'
p2228
I1
sS'agents'
p2229
I1
sS'Way'
p2230
I1
sS'Online'
p2231
I1
sS'000m'
p2232
I2
sS'Was'
p2233
I3
sS'War'
p2234
I3
sS'expensive'
p2235
I1
sS'Play'
p2236
I1
sS'Shakes'
p2237
I2
sS'raise'
p2238
I1
sS'Probed'
p2239
I1
sS'Changes'
p2240
I2
sS'political'
p2241
I1
sS'due'
p2242
I1
sS'Detains'
p2243
I1
sS'Difficulty'
p2244
I1
sS'Takeover'
p2245
I1
sS'California'
p2246
I1
sS'Plan'
p2247
I5
sS'Job'
p2248
I1
sS'Sadder'
p2249
I1
sS'meeting'
p2250
I2
sS'Women'
p2251
I4
sS'cyclist'
p2252
I1
sS'nukes'
p2253
I1
sS'Allies'
p2254
I1
sS'champion'
p2255
I2
sS'fire'
p2256
I1
sS'Universe'
p2257
I1
sS'Polls'
p2258
I2
sS'Startup'
p2259
I2
sS'15-Year-Old'
p2260
I1
sS'Academia'
p2261
I1
sS"homes'"
p2262
I1
sS'Saudi'
p2263
I2
sS'Pick'
p2264
I1
sS'grills'
p2265
I1
sS'Wolves'
p2266
I1
sS'Drops'
p2267
I2
sS'Commencement'
p2268
I1
sS'handling'
p2269
I1
sS'Old'
p2270
I2
sS'straight'
p2271
I1
sS'bill'
p2272
I8
sS'Reassure'
p2273
I1
sS'elections'
p2274
I1
sS'Snapchat'
p2275
I1
sS'Climb'
p2276
I1
sS'Circling'
p2277
I1
sS'Measure'
p2278
I1
sS'Market'
p2279
I2
sS'WBC'
p2280
I1
sS'City'
p2281
I10
sS'hails'
p2282
I1
sS"'Most"
p2283
I1
sS'Khan'
p2284
I1
sS'century'
p2285
I1
sS'Inundated'
p2286
I1
sS'tests'
p2287
I1
sS'Nashville\xe2'
p2288
I1
sS'Back'
p2289
I1
sS'Tim'
p2290
I1
sS"Holmes'"
p2291
I1
sS'itself'
p2292
I1
sS'Sessions'
p2293
I7
sS'Prison'
p2294
I1
sS'ready'
p2295
I1
sS'Millwall'
p2296
I2
sS'global\xc2'
p2297
I1
sS'aged'
p2298
I2
sS'myth'
p2299
I1
sS'Travis'
p2300
I1
sS'FAS'
p2301
I1
sS'Jumps'
p2302
I1
sS'government'
p2303
I1
sS'Surface\xc2'
p2304
I1
sS'graves'
p2305
I1
sS'Rahman'
p2306
I1
sS"'died'"
p2307
I1
sS'About'
p2308
I3
sS'used'
p2309
I1
sS'live\xe2'
p2310
I1
sS"Derby's"
p2311
I2
sS'Immigrants'
p2312
I1
sS'Scenes'
p2313
I1
sS'moment'
p2314
I2
sS'000'
p2315
I8
sS'uses'
p2316
I2
sS'Be'
p2317
I8
sS"mankind'"
p2318
I1
sS'Charged'
p2319
I2
sS'early'
p2320
I2
sS'task'
p2321
I1
sS'Almost'
p2322
I2
sS'Miller'
p2323
I1
sS'forfeited'
p2324
I1
sS"Didn't"
p2325
I1
sS'Nest\xe2'
p2326
I1
sS"'impressed'"
p2327
I1
sS'Club'
p2328
I1
sS'Rate'
p2329
I4
sS'Fargo\xe2'
p2330
I1
sS'withdraw'
p2331
I1
sS'Talks'
p2332
I1
sS'Limit'
p2333
I1
sS'Girl'
p2334
I1
sS'clearance'
p2335
I1
sS'election\xe2'
p2336
I1
sS'Officer'
p2337
I2
sS'ambassador'
p2338
I1
sS"'Day"
p2339
I1
sS'Takes'
p2340
I4
sS'Breadwinner'
p2341
I1
sS'settlements'
p2342
I2
sS'Labor'
p2343
I2
sS'Release'
p2344
I1
sS'openly'
p2345
I1
sS"We're"
p2346
I1
sS'Statement'
p2347
I1
sS'Internet'
p2348
I1
sS'Deleveraging'
p2349
I1
sS'startups'
p2350
I1
sS'gems'
p2351
I1
sS'cut'
p2352
I1
sS'cup'
p2353
I1
sS'advisers'
p2354
I1
sS'workers'
p2355
I1
sS'Nokia'
p2356
I1
sS"'rare'"
p2357
I1
sS'source'
p2358
I1
sS'parents'
p2359
I1
sS"'get"
p2360
I1
sS'Million'
p2361
I3
sS'lip'
p2362
I1
sS'Marine'
p2363
I4
sS'On'
p2364
I4
sS'victims'
p2365
I1
sS'Faster'
p2366
I1
sS'demands'
p2367
I1
sS'Of'
p2368
I2
sS'Cells'
p2369
I1
sS'Farah'
p2370
I1
sS'game'
p2371
I3
sS'Gathers'
p2372
I1
sS'Behavioral'
p2373
I1
sS'Russiagate'
p2374
I1
sS'England'
p2375
I11
sS"Israel's"
p2376
I1
sS'Infrastructure'
p2377
I1
sS'Os'
p2378
I1
sS"Helmets'"
p2379
I1
sS'helpful'
p2380
I1
sS'Penthouse'
p2381
I1
sS'Skeleton'
p2382
I1
sS'Short'
p2383
I1
sS'FA'
p2384
I7
sS"Hak-song'"
p2385
I1
sS'women\xe2'
p2386
I1
sS'Show'
p2387
I1
sS'ignore'
p2388
I2
sS'Bank'
p2389
I4
sS'Learning'
p2390
I1
sS'Squishy'
p2391
I1
sS'Red'
p2392
I3
sS'Conference'
p2393
I1
sS'Jones'
p2394
I2
sS'Little'
p2395
I2
sS"Lockheed's"
p2396
I1
sS'parade'
p2397
I2
sS'Chosen'
p2398
I1
sS"'fake"
p2399
I1
sS'BUFFETT'
p2400
I1
sS'some'
p2401
I5
sS'back'
p2402
I5
sS'MWC'
p2403
I2
sS'Mourinho'
p2404
I1
sS'Andy'
p2405
I3
sS'fabric'
p2406
I1
sS'Academical'
p2407
I1
sS'Bannon'
p2408
I1
sS'irresistible'
p2409
I1
sS'Seoul'
p2410
I1
sS'contacts'
p2411
I1
sS'decision'
p2412
I2
sS'Kipchoge'
p2413
I1
sS'Marvel\xe2'
p2414
I1
sS'Rugby'
p2415
I2
sS'epic'
p2416
I1
sS'eggs'
p2417
I1
sS"Here's"
p2418
I2
sS'Something'
p2419
I2
sS'be'
p2420
I10
sS'run'
p2421
I1
sS'jumps'
p2422
I1
sS'Bill'
p2423
I16
sS'O'
I3
sS'refused'
p2424
I1
sS'Optimism'
p2425
I1
sS'Stopping'
p2426
I1
sS"Who'"
p2427
I1
sS'by'
p2428
I19
sS'troops'
p2429
I1
sS'Sanchez'
p2430
I1
sS'Jimmy'
p2431
I1
sS'Attend'
p2432
I1
sS'anything'
p2433
I1
sS'Voters'
p2434
I1
sS'refugees'
p2435
I1
sS'firing'
p2436
I1
sS'Roe'
p2437
I2
sS'range'
p2438
I1
sS'slams'
p2439
I2
sS'Distant'
p2440
I1
sS'Pong'
p2441
I1
sS'Captain'
p2442
I1
sS'shiny'
p2443
I1
sS"'Where"
p2444
I1
sS'Bunch'
p2445
I1
sS'Simon'
p2446
I1
sS'medallist'
p2447
I1
sS'86'
p2448
I1
sS'into'
p2449
I3
sS'70'
p2450
I1
sS'Young'
p2451
I1
sS'Everything'
p2452
I1
sS'Flights'
p2453
I1
sS'Visas'
p2454
I1
sS'Speech'
p2455
I2
sS'Skyscraper'
p2456
I1
sS'spam'
p2457
I1
sS'spending'
p2458
I1
sS'Anthony'
p2459
I2
sS'visas'
p2460
I1
sS'Fastest'
p2461
I1
sS'Coverage'
p2462
I1
sS'Gerald'
p2463
I1
sS'forward'
p2464
I1
sS'Bond'
p2465
I1
sS'opens'
p2466
I1
sS'0-4'
p2467
I1
sS'Sutton'
p2468
I1
sS'0-0'
p2469
I2
sS'fans\xe2'
p2470
I1
sS'immigration'
p2471
I2
sS'Raikkonen'
p2472
I1
sS'Deals'
p2473
I2
sS'Google'
p2474
I6
sS"miracle'"
p2475
I1
sS'filed'
p2476
I1
sS'ceremonies'
p2477
I1
sS'Media\xc2'
p2478
I1
sS'Beijing'
p2479
I2
sS'Irish'
p2480
I2
sS'Office'
p2481
I2
sS'Jeff'
p2482
I3
sS'Twitter'
p2483
I2
sS'Indoor'
p2484
I1
sS'Youngs'
p2485
I1
sS'us'
p2486
I1
sS"There's"
p2487
I1
sS'exploration'
p2488
I1
sS'prosecutor'
p2489
I2
sS'Lewis'
p2490
I2
sS'autonomous'
p2491
I2
sS'called'
p2492
I1
sS"fans'"
p2493
I1
sS'143rd'
p2494
I2
sS'36-15'
p2495
I1
sS'constant'
p2496
I1
sS'Ambitions'
p2497
I1
sS'Needed'
p2498
I2
sS'Attack'
p2499
I4
sS'Covenant\xe2'
p2500
I2
sS'New'
p2501
I14
sS'Snap'
p2502
I1
sS'presides'
p2503
I1
sS"sports'"
p2504
I1
sS'Cain'
p2505
I3
sS'Raith'
p2506
I1
sS'disappoints'
p2507
I1
sS'visa\xe2'
p2508
I1
sS'Murder'
p2509
I2
sS'Fed\xe2'
p2510
I1
sS'Barrier'
p2511
I1
sS'TV'
p2512
I5
sS'peace'
p2513
I1
sS'fears'
p2514
I1
sS'backs'
p2515
I1
sS'club'
p2516
I1
sS'Error'
p2517
I1
sS'Student'
p2518
I1
sS'department'
p2519
I1
sS'Dynamics\xe2'
p2520
I1
sS'Man'
p2521
I6
sS'Case'
p2522
I1
sS'Deal\xe2'
p2523
I1
sS'Cash'
p2524
I1
sS'resign'
p2525
I1
sS'Midlands'
p2526
I1
sS'Thought'
p2527
I1
sS'AP'
p2528
I1
sS"soar'"
p2529
I1
sS'Derby'
p2530
I13
sS'Making'
p2531
I1
sS"Salvador's"
p2532
I1
sS'urged'
p2533
I1
sS'suffers'
p2534
I1
sS'Uzi'
p2535
I1
sS'Tunisia'
p2536
I1
sS'officers'
p2537
I2
sS'vehicles'
p2538
I1
sS'account'
p2539
I1
sS'35-15'
p2540
I1
sS'An'
p2541
I1
sS"'cash"
p2542
I1
sS'As'
p2543
I3
sS'Scott'
p2544
I2
sS'2007'
p2545
I1
sS'rallies'
p2546
I1
sS'far'
p2547
I1
sS"back'"
p2548
I1
sS'Blows'
p2549
I1
sS'having'
p2550
I1
sS'Eliud'
p2551
I1
sS'Sell'
p2552
I1
sS'code'
p2553
I1
sS'Musk\xe2'
p2554
I1
sS'Ibrahimovic'
p2555
I2
sS'Gaviria'
p2556
I1
sS'softer'
p2557
I1
sS'Asset'
p2558
I1
sS'go'
p2559
I2
sS'Kentucky\xc2'
p2560
I1
sS'Boko'
p2561
I5
sS'issues'
p2562
I2
sS'breached'
p2563
I1
sS'Netanyahu'
p2564
I3
sS'Step'
p2565
I1
sS'does'
p2566
I1
sS'Tillerson'
p2567
I1
sS'Not'
p2568
I4
sS'3\xe2'
p2569
I1
sS"'Go"
p2570
I1
sS'Now'
p2571
I3
sS'Northwest\xe2'
p2572
I1
sS'meetings'
p2573
I2
sS'rainbow'
p2574
I1
sS'Albion'
p2575
I1
sS'Celebrity'
p2576
I2
sS"Jared's"
p2577
I1
sS'intel'
p2578
I1
sS"'chilling"
p2579
I1
sS'P'
I4
sS'putting'
p2580
I1
sS'Risks'
p2581
I1
sS'Fraternity'
p2582
I1
sS'Staking'
p2583
I1
sS'spoof'
p2584
I1
sS'touchline'
p2585
I1
sS"help'"
p2586
I1
sS'Pope'
p2587
I1
sS'Investors'
p2588
I3
sS'Brisbane'
p2589
I2
sS'Pro12'
p2590
I1
sS"Leicester'"
p2591
I1
sS'populist'
p2592
I2
sS'try'
p2593
I1
sS'race'
p2594
I2
sS'Stings'
p2595
I1
sS'avoiding'
p2596
I1
sS"Uber's"
p2597
I2
sS'ceasefire'
p2598
I1
sS'competitors'
p2599
I1
sS'victim'
p2600
I1
sS'pledge'
p2601
I2
sS'Theranos'
p2602
I1
sS'Spending'
p2603
I2
sS'flu'
p2604
I1
sS'Marks'
p2605
I1
sS'Fast'
p2606
I1
sS'infant'
p2607
I1
sS'State'
p2608
I6
sS'video'
p2609
I3
sS'Organization'
p2610
I1
sS'concludes'
p2611
I1
sS'Stephanopoulos'
p2612
I1
sS'3G'
p2613
I1
sS'click'
p2614
I1
sS"agencies'"
p2615
I1
sS'WHAT'
p2616
I1
sS'Governors'
p2617
I2
sS'Hammond'
p2618
I1
sS'IUD'
p2619
I1
sS'access'
p2620
I1
sS'Gestede'
p2621
I1
sS"'under"
p2622
I1
sS'America'
p2623
I1
sS'Inside'
p2624
I4
sS'Thrives'
p2625
I1
sS'impact'
p2626
I1
sS'led'
p2627
I1
sS'stance'
p2628
I1
sS'exchange'
p2629
I1
sS'Light'
p2630
I1
sS'Liberation\xe2'
p2631
I1
sS'poverty'
p2632
I1
sS'web'
p2633
I1
sS'IGN'
p2634
I22
sS'Musk'
p2635
I1
sS'Fatally'
p2636
I2
sS'Commonwealth'
p2637
I1
sS'Chinese'
p2638
I5
sS'Moments'
p2639
I1
sS'Energy'
p2640
I1
sS'Insanely'
p2641
I1
sS'37'
p2642
I3
sS'Moffat'
p2643
I1
sS'Alien'
p2644
I4
sS'CBS'
p2645
I1
sS'Fortunes'
p2646
I1
sS'Vietnam'
p2647
I1
sS'defeat'
p2648
I1
sS'staff-wide\xc2'
p2649
I1
sS"3'"
p2650
I1
sS'Bid'
p2651
I1
sS'Staff'
p2652
I1
sS'streaming\xc2'
p2653
I1
sS'addresses'
p2654
I1
sS'Doctor'
p2655
I2
sS'FX'
p2656
I1
sS'win'
p2657
I7
sS'app'
p2658
I1
sS'Alleged'
p2659
I1
sS'private'
p2660
I1
sS'Noticed'
p2661
I1
sS'Nick'
p2662
I1
sS'Jr'
p2663
I1
sS'frame'
p2664
I1
sS'Hove'
p2665
I1
sS'scandal'
p2666
I1
sS'Pixar'
p2667
I1
sS'from'
p2668
I13
sS'Ernie'
p2669
I1
sS'Spock\xe2'
p2670
I1
sS'remains'
p2671
I1
sS'pauses'
p2672
I1
sS'Driver'
p2673
I1
sS'next'
p2674
I3
sS'cute\xc2'
p2675
I1
sS'Drag'
p2676
I1
sS'NATO'
p2677
I1
sS'cheeky'
p2678
I1
sS'Statue'
p2679
I1
sS'congratulates'
p2680
I1
sS'themselves'
p2681
I1
sS'historically'
p2682
I1
sS'Land'
p2683
I4
sS'Joe\xe2'
p2684
I2
sS'upcoming'
p2685
I1
sS'started'
p2686
I1
sS'Launch'
p2687
I1
sS'baby'
p2688
I1
sS'Guy'
p2689
I2
sS"president'"
p2690
I1
sS'women'
p2691
I2
sS'customer'
p2692
I1
sS'F1'
p2693
I3
sS'Arrangement\xe2'
p2694
I1
sS'Managers'
p2695
I1
sS'this'
p2696
I6
sS'challenge'
p2697
I1
sS"'This"
p2698
I1
sS'Kimmel'
p2699
I1
sS'Video'
p2700
I34
sS'Vote'
p2701
I1
sS'meet'
p2702
I1
sS'drops'
p2703
I1
sS'Nationalism'
p2704
I1
sS'ALS'
p2705
I1
sS"'set"
p2706
I1
sS"Joe'"
p2707
I1
sS'Police'
p2708
I1
sS'Camping'
p2709
I1
sS'process'
p2710
I2
sS'tax'
p2711
I1
sS'touchscreen'
p2712
I1
sS'Confirms'
p2713
I1
sS'high'
p2714
I2
sS'Details'
p2715
I1
sS'Policy'
p2716
I1
sS'Party'
p2717
I2
sS"'ready"
p2718
I1
sS"Statham's"
p2719
I1
sS'dominant'
p2720
I1
sS'Russia'
p2721
I11
sS'democracy'
p2722
I1
sS"'Beauty"
p2723
I1
sS'holds'
p2724
I1
sS'Warrington'
p2725
I2
sS"hosts'"
p2726
I1
sS'winners'
p2727
I3
sS'unites'
p2728
I1
sS'Doubts'
p2729
I1
sS'tactics'
p2730
I1
sS'struggled'
p2731
I1
sS'Emails'
p2732
I1
sS'Patriarchy'
p2733
I1
sS'tension'
p2734
I1
sS'Stirred'
p2735
I1
sS'ABC'
p2736
I1
sS'UK'
p2737
I3
sS'attend'
p2738
I1
sS"'renewal"
p2739
I1
sS'British'
p2740
I4
sS'abuse'
p2741
I4
sS'Ingrid'
p2742
I1
sS'Donnell'
p2743
I3
sS'Uber'
p2744
I5
sS'Bouchard'
p2745
I1
sS'Smerconish'
p2746
I1
sS'Politico'
p2747
I1
sS"'determined"
p2748
I1
sS'didn\xe2'
p2749
I1
sS'robot'
p2750
I1
sS'One'
p2751
I3
sS'Former'
p2752
I2
sS'Blackpool'
p2753
I1
sS'Reputation'
p2754
I1
sS'Tablets'
p2755
I1
sS'agenda'
p2756
I2
sS'healthcare'
p2757
I3
sS'become\xc2'
p2758
I1
sS'Politics'
p2759
I1
sS'Expensive'
p2760
I1
sS'fastest'
p2761
I2
sS'Ginsburg'
p2762
I1
sS'soggy'
p2763
I1
sS'move'
p2764
I1
sS'Catalysts'
p2765
I1
sS"king's"
p2766
I1
sS'Nicki'
p2767
I1
sS"won't"
p2768
I1
sS'looks'
p2769
I1
sS'Hearts'
p2770
I1
sS'Orbiting'
p2771
I1
sS'Final'
p2772
I1
sS'Match'
p2773
I3
sS'Ayr'
p2774
I1
sS"'strongly"
p2775
I1
sS'Kidnapping'
p2776
I1
sS'Paperwork'
p2777
I1
sS'exclusion'
p2778
I1
sS'll'
p2779
I2
sS'nostalgia'
p2780
I1
sS'winning'
p2781
I1
sS'Director'
p2782
I1
sS'Championships'
p2783
I3
sS'2018'
p2784
I7
sS'2017'
p2785
I29
sS'2016'
p2786
I4
sS'dad'
p2787
I1
sS'Celtic'
p2788
I1
sS'crash'
p2789
I2
sS'Crops'
p2790
I1
sS'Car'
p2791
I1
sS'material'
p2792
I1
sS'Hungry'
p2793
I1
sS'Loses'
p2794
I1
sS'Preside'
p2795
I1
sS'Can'
p2796
I4
sS'investor'
p2797
I1
sS'day'
p2798
I4
sS'presidential'
p2799
I5
sS'minimalist'
p2800
I1
sS'San'
p2801
I2
sS'Unemployment'
p2802
I1
sS"unfairly'"
p2803
I1
sS'OPEC'
p2804
I1
sS'Emmanuel'
p2805
I10
sS'Minaj'
p2806
I1
sS'Say'
p2807
I1
sS'bromance'
p2808
I1
sS'rising'
p2809
I1
sS'Fed'
p2810
I2
sS'bills'
p2811
I1
sS'Saw'
p2812
I1
sS'Kate'
p2813
I1
sS'Weekly'
p2814
I3
sS'From'
p2815
I7
sS'doing'
p2816
I3
sS'700'
p2817
I1
sS'Next'
p2818
I5
sS'82'
p2819
I2
sS'80'
p2820
I3
sS'Showrunner'
p2821
I1
sS'sexual'
p2822
I2
sS'special'
p2823
I3
sS'out'
p2824
I4
sS"Ferrari's"
p2825
I1
sS'Vert'
p2826
I1
sS"'"
I8
sS'CEO'
p2827
I3
sS'Season'
p2828
I1
sS'defend'
p2829
I1
sS"Shay's"
p2830
I1
sS'Heir'
p2831
I1
sS"nationalism'"
p2832
I1
sS'include'
p2833
I1
sS'China'
p2834
I5
sS'Nearly'
p2835
I1
sS'Trying'
p2836
I1
sS'neutrality'
p2837
I1
sS'Buying'
p2838
I2
sS'Vern'
p2839
I1
sS'disclose'
p2840
I2
sS'Reveal'
p2841
I1
sS'cricketer'
p2842
I1
sS'Meeting'
p2843
I1
sS'This'
p2844
I15
sS'Slain'
p2845
I1
sS'transfer'
p2846
I1
sS'Picks'
p2847
I1
sS'ban'
p2848
I1
sS'Perks'
p2849
I1
sS'Ryan'
p2850
I4
sS'Canadians'
p2851
I1
sS'A4109'
p2852
I1
sS'Meet'
p2853
I2
sS'comeback'
p2854
I1
sS'Spend'
p2855
I2
sS'Outlook'
p2856
I1
sS'allies'
p2857
I1
sS'her'
p2858
I4
sS'Point'
p2859
I1
sS'Madrid'
p2860
I4
sS'could'
p2861
I2
sS'Arsenal'
p2862
I2
sS'times'
p2863
I1
sS'world\xe2'
p2864
I1
sS'bird'
p2865
I1
sS'Drone'
p2866
I1
sS'shutout'
p2867
I1
sS'Aides'
p2868
I1
sS'scare'
p2869
I1
sS'David'
p2870
I3
sS'Gunn'
p2871
I1
sS"'soft"
p2872
I1
sS'there'
p2873
I1
sS'roadshow\xc2'
p2874
I1
sS'apps'
p2875
I1
sS'Review'
p2876
I5
sS'ethnic'
p2877
I1
sS"Paxton's"
p2878
I1
sS'scene'
p2879
I1
sS'reaches'
p2880
I1
sS'News\xe2'
p2881
I1
sS'date'
p2882
I1
sS'Prom'
p2883
I1
sS'braces'
p2884
I1
sS'prank'
p2885
I2
sS'Passports'
p2886
I1
sS"doesn't"
p2887
I1
sS'North'
p2888
I9
sS'Eastern'
p2889
I1
sS'evacuates'
p2890
I2
sS'revealed'
p2891
I1
sS'Chokes'
p2892
I1
sS'Nike\xe2'
p2893
I1
sS'their'
p2894
I3
sS'attack'
p2895
I4
sS'Last-Minute'
p2896
I1
sS"Scotland's"
p2897
I1
sS'Stocks'
p2898
I2
sS'Vargas'
p2899
I1
sS'tourists'
p2900
I3
sS'2-2'
p2901
I1
sS'2-3'
p2902
I1
sS'2-0'
p2903
I3
sS'2-1'
p2904
I1
sS'lot'
p2905
I1
sS'Fox'
p2906
I1
sS'nobody'
p2907
I1
sS'debate'
p2908
I1
sS'detains'
p2909
I1
sS'Crawling'
p2910
I1
sS'Remain'
p2911
I1
sS"'inadequate'"
p2912
I1
sS'herself'
p2913
I1
sS'Contenders'
p2914
I1
sS'hearings'
p2915
I2
sS'Flawed'
p2916
I1
sS'Duct'
p2917
I1
sS'Siri'
p2918
I1
sS'claim'
p2919
I1
sS'Edition'
p2920
I1
sS'bobsledder'
p2921
I2
sS'Diverse'
p2922
I1
sS'Strategy'
p2923
I1
sS'Shutdown'
p2924
I1
sS'Bulls'
p2925
I1
sS'Psaki'
p2926
I1
sS"Facebook's"
p2927
I1
sS'Diego'
p2928
I1
sS"'Trumpcare'"
p2929
I1
sS'recuse'
p2930
I1
sS'Richard'
p2931
I1
sS'Flying'
p2932
I1
sS'tide'
p2933
I1
sS'Secret'
p2934
I1
sS'have'
p2935
I9
sS'Scarlets'
p2936
I1
sS'need'
p2937
I2
sS'border'
p2938
I1
sS'preps'
p2939
I1
sS'Spat'
p2940
I1
sS'Development'
p2941
I1
sS'Independent'
p2942
I1
sS'Sources'
p2943
I1
sS"'Moonlight'"
p2944
I2
sS'Goldman'
p2945
I3
sS'Couple'
p2946
I1
sS'After'
p2947
I10
sS'Nafta'
p2948
I1
sS'Photos'
p2949
I2
sS'demolished'
p2950
I1
sS'Radio'
p2951
I3
sS"'Saturday"
p2952
I2
sS'medals'
p2953
I1
sS'warily'
p2954
I1
sS'savages'
p2955
I1
sS'six-year'
p2956
I1
sS'combat'
p2957
I1
sS'who'
p2958
I3
sS'Grieve'
p2959
I1
sS'Titanic'
p2960
I1
sS'Without'
p2961
I2
sS'Games'
p2962
I2
sS'Enter'
p2963
I1
sS'Mercedes'
p2964
I1
sS'thunder'
p2965
I1
sS'Asked'
p2966
I1
sS'Renewing'
p2967
I1
sS'Voice\xe2'
p2968
I1
sS"'radical"
p2969
I1
sS'Lock'
p2970
I1
sS'Supernatural\xe2'
p2971
I1
sS'Some'
p2972
I3
sS'face'
p2973
I6
sS'Weigh'
p2974
I1
sS'Growth'
p2975
I1
sS'pictures'
p2976
I1
sS'USC'
p2977
I1
sS'basics\xc2'
p2978
I1
sS"millionaires'"
p2979
I1
sS'Dem'
p2980
I1
sS'Everybody'
p2981
I1
sS'Liam'
p2982
I1
sS'Prolly'
p2983
I1
sS'text'
p2984
I1
sS'Acts'
p2985
I1
sS"'Invest"
p2986
I1
sS'bring'
p2987
I1
sS'Pulpit'
p2988
I1
sS'Stallone'
p2989
I1
sS'Under'
p2990
I2
sS'rough'
p2991
I1
sS'feat'
p2992
I1
sS'Paul\xe2'
p2993
I1
sS'decade'
p2994
I1
sS'staff'
p2995
I1
sS'Thrones'
p2996
I1
sS'sparks'
p2997
I1
sS'winner'
p2998
I2
sS'should'
p2999
I5
sS'terminal'
p3000
I1
sS'Sons'
p3001
I1
sS'York'
p3002
I2
sS'fuel'
p3003
I1
sS'thousands'
p3004
I2
sS'Legend'
p3005
I2
sS'hope'
p3006
I1
sS'discovers'
p3007
I1
sS'Unwinding'
p3008
I1
sS'Ngo'
p3009
I1
sS'19-9'
p3010
I1
sS'CN'
p3011
I1
sS'overall'
p3012
I1
sS"'giving"
p3013
I1
sS'Keep'
p3014
I1
sS'joint'
p3015
I1
sS'Stories'
p3016
I1
sS'Popular'
p3017
I1
sS'second-half'
p3018
I1
sS'Dial'
p3019
I1
sS'amid'
p3020
I1
sS'Sinclair'
p3021
I1
sS"'don't"
p3022
I1
sS'married'
p3023
I1
sS'calling'
p3024
I2
sS'Wall'
p3025
I1
sS"'test"
p3026
I1
sS'Experts'
p3027
I1
sS'she'
p3028
I1
sS'allegation'
p3029
I1
sS'bucket\xc2'
p3030
I1
sS'futuristic'
p3031
I1
sS'FDA'
p3032
I1
sS'Ps'
p3033
I1
sS'temporarily'
p3034
I1
sS'cameo\xc2'
p3035
I1
sS'Thinking'
p3036
I1
sS"Oxford's"
p3037
I1
sS'national'
p3038
I2
sS'C'
I1
sS'Traders'
p3039
I1
sS"'carjacking'"
p3040
I2
sS'Unity'
p3041
I1
sS'officials'
p3042
I2
sS'signed'
p3043
I2
sS'unveils'
p3044
I2
sS'PS'
p3045
I2
sS'Arrives'
p3046
I1
sS'Sinks'
p3047
I1
sS'Bernardino'
p3048
I1
sS'nuclear'
p3049
I1
sS'missing'
p3050
I2
sS'PC'
p3051
I1
sS'state'
p3052
I2
sS'confusion'
p3053
I1
sS'nominees'
p3054
I1
sS'Lynch-Clinton'
p3055
I1
sS'Republican'
p3056
I5
sS'email'
p3057
I3
sS'PM'
p3058
I1
sS'joy'
p3059
I1
sS'Health-Care'
p3060
I1
sS"'soldiers"
p3061
I1
sS'S'
I14
sS'Race'
p3062
I1
sS'EFL'
p3063
I2
sS'key'
p3064
I3
sS'Self-Driving'
p3065
I1
sS'Startups'
p3066
I1
sS'hits'
p3067
I3
sS'Tes'
p3068
I1
sS'Dilemma'
p3069
I1
sS'admin'
p3070
I1
sS'joke'
p3071
I1
sS'taking'
p3072
I1
sS'drug'
p3073
I1
sS'rams'
p3074
I1
sS'LCD'
p3075
I1
sS'Spinners'
p3076
I1
sS'volley'
p3077
I1
sS'withdraws'
p3078
I4
sS'Blow'
p3079
I1
sS'Would'
p3080
I1
sS'Haye'
p3081
I1
sS'Girls'
p3082
I2
sS'Condemns'
p3083
I1
sS'Garry'
p3084
I1
sS'confronts'
p3085
I1
sS"Women's"
p3086
I3
sS'Lily'
p3087
I1
sS'Rewards'
p3088
I1
sS'outsider'
p3089
I1
sS'Get'
p3090
I3
sS"it's"
p3091
I1
sS'muddy'
p3092
I1
sS'Hollande'
p3093
I1
sS'trademark'
p3094
I1
sS'Immigration'
p3095
I1
sS'responds'
p3096
I1
sS'permanent'
p3097
I1
sS'attends'
p3098
I1
sS'proposal'
p3099
I1
sS'Editing'
p3100
I1
sS'Speak'
p3101
I1
sS'of\xc2'
p3102
I3
sS'reshape'
p3103
I1
sS'general'
p3104
I1
sS'Center'
p3105
I1
sS'Puzder'
p3106
I1
sS'King'
p3107
I1
sS'overwhelmingly'
p3108
I1
sS'kickers'
p3109
I1
sS'schoolgirls'
p3110
I1
sS'Face'
p3111
I1
sS'Courses'
p3112
I1
sS'Stunt'
p3113
I1
sS'kicks'
p3114
I1
sS'Jason'
p3115
I1
sS'legalising'
p3116
I1
sS'Fact'
p3117
I1
sS'IPO'
p3118
I3
sS'And'
p3119
I4
sS'homes'
p3120
I1
sS'smartphones'
p3121
I1
sS'Force'
p3122
I1
sS'Warns'
p3123
I4
sS'Hot'
p3124
I1
sS'General'
p3125
I5
sS'will'
p3126
I7
sS'Kasich'
p3127
I1
sS'Hodgson'
p3128
I1
sS'Any'
p3129
I1
sS'Confidence'
p3130
I1
sS"America's"
p3131
I4
sS'Troops'
p3132
I1
sS'Economics'
p3133
I1
sS'almost'
p3134
I1
sS'Dubai'
p3135
I5
sS'rips'
p3136
I1
sS'hippo'
p3137
I1
sS'Shackled'
p3138
I1
sS'Fuel'
p3139
I1
sS"Russia's"
p3140
I2
sS'You'
p3141
I10
sS'Singhal'
p3142
I1
sS'Briton'
p3143
I1
sS'terrorist'
p3144
I1
sS'mid-performance'
p3145
I1
sS'administration'
p3146
I2
sS'unite'
p3147
I1
sS'Insults'
p3148
I1
sS'2005'
p3149
I1
sS'free-kick'
p3150
I1
sS'gets'
p3151
I3
sS'Corbyn'
p3152
I4
sS'injured'
p3153
I2
sS'Entire'
p3154
I1
sS'ball'
p3155
I1
sS'glitz'
p3156
I1
sS'fraternity'
p3157
I1
sS'1-0'
p3158
I5
sS'1-3'
p3159
I1
sS'drink'
p3160
I1
sS'Grey'
p3161
I1
sS'never'
p3162
I1
sS'Keeps'
p3163
I1
sS'fierce'
p3164
I1
sS'Order'
p3165
I1
sS'off'
p3166
I8
sS'Adults'
p3167
I1
sS'Senate'
p3168
I5
sS'Aberdeen'
p3169
I1
sS'Muir'
p3170
I2
sS'thought'
p3171
I2
sS'patterns'
p3172
I1
sS"'my"
p3173
I1
sS'Have'
p3174
I5
sS'Need'
p3175
I1
sS'Chibok'
p3176
I7
sS'realised'
p3177
I1
sS'spherical'
p3178
I1
sS'taller'
p3179
I1
sS'45'
p3180
I1
sS'BB'
p3181
I1
sS'less'
p3182
I1
sS'Liftoff'
p3183
I1
sS"'Sense8'"
p3184
I3
sS"Pimco's"
p3185
I1
sS'food-truck'
p3186
I1
sS'recap'
p3187
I4
sS'Bipartisan'
p3188
I1
sS'Dictators'
p3189
I1
sS'Flynn'
p3190
I1
sS'Gill'
p3191
I1
sS'Gaming'
p3192
I2
sS'Unbelievable'
p3193
I1
sS'40-17'
p3194
I1
sS'combine'
p3195
I1
sS'citizen'
p3196
I4
sS'Five'
p3197
I2
sS'Kraft'
p3198
I1
sS'By'
p3199
I2
sS'details'
p3200
I1
sS'Special\xe2'
p3201
I2
sS'Programs'
p3202
I1
sS'fate'
p3203
I1
sS'Summer'
p3204
I2
sS'checking'
p3205
I1
sS'Drug'
p3206
I1
sS"'Terrorism"
p3207
I1
sS'Goodlatte'
p3208
I1
sS'historic'
p3209
I1
sS'five'
p3210
I3
sS'know'
p3211
I3
sS'rhino-horn'
p3212
I1
sS'Salazar'
p3213
I1
sS'press'
p3214
I1
sS'Fallen'
p3215
I1
sS'Migration'
p3216
I1
sS'Carrie'
p3217
I1
sS'like'
p3218
I2
sS'lost'
p3219
I3
sS'Mistaken'
p3220
I1
sS'loses'
p3221
I1
sS'hosts'
p3222
I1
sS'lose'
p3223
I1
sS'become'
p3224
I3
sS'conclusion'
p3225
I1
sS'Feat'
p3226
I1
sS'timeline'
p3227
I1
sS'because'
p3228
I2
sS'convicts'
p3229
I1
sS'Thunder'
p3230
I1
sS'footage'
p3231
I1
sS'Great'
p3232
I1
sS'Offers'
p3233
I2
sS'Tweets'
p3234
I2
sS'home'
p3235
I4
sS'Jonathan'
p3236
I1
sS'Footballer'
p3237
I1
sS'lead'
p3238
I1
sS'Singapore'
p3239
I1
sS'suppressing'
p3240
I1
sS'asthma'
p3241
I1
sS'Seagal'
p3242
I1
sS'Wenger'
p3243
I1
sS'Wishes'
p3244
I1
sS'Fidget'
p3245
I2
sS'Bull'
p3246
I1
sS'Brexit\xc2'
p3247
I1
sS'Straight'
p3248
I1
sS'Official'
p3249
I1
sS'Up'
p3250
I4
sS'Us'
p3251
I3
sS'Pence'
p3252
I3
sS'pressure'
p3253
I1
sS'host'
p3254
I1
sS'Un'
p3255
I1
sS'Times'
p3256
I1
sS'Planned'
p3257
I1
sS'baffling'
p3258
I1
sS'stage'
p3259
I4
sS'about'
p3260
I10
sS"Lord's"
p3261
I1
sS'getting'
p3262
I2
sS'Defenders'
p3263
I1
sS'US'
p3264
I17
sS'Replace'
p3265
I1
sS'Students'
p3266
I1
sS'Zero'
p3267
I1
sS'UN'
p3268
I2
sS"Couldn't"
p3269
I1
sS'Cars'
p3270
I1
sS'urges'
p3271
I1
sS'fatally'
p3272
I1
sS'Really'
p3273
I2
sS'Morgan'
p3274
I2
sS'Passes'
p3275
I2
sS'booed'
p3276
I1
sS'Lose'
p3277
I2
sS'Two'
p3278
I4
sS'included'
p3279
I1
sS'Labour'
p3280
I3
sS'tiny'
p3281
I1
sS'female'
p3282
I2
sS'Klimke'
p3283
I1
sS'Insurers'
p3284
I2
sS'Awareness'
p3285
I1
sS'Bingham'
p3286
I1
sS'CGI'
p3287
I1
sS'Moonlight'
p3288
I4
sS'Abdel-Rahman'
p3289
I1
sS'publicist\xe2'
p3290
I1
sS'artifacts'
p3291
I1
sS'friends'
p3292
I1
sS'housing'
p3293
I1
sS'Spell'
p3294
I1
sS'Upon'
p3295
I1
sS'Chance'
p3296
I1
sS'Chiefs'
p3297
I1
sS'Child'
p3298
I1
sS'biggest'
p3299
I1
sS'in\xc2'
p3300
I1
sS'Hangouts'
p3301
I1
sS"We'll"
p3302
I1
sS'Rejection'
p3303
I1
sS'chatting'
p3304
I1
sS'36th'
p3305
I1
sS'Losses'
p3306
I1
sS'agrees'
p3307
I1
sS'but'
p3308
I2
sS'Binds'
p3309
I1
sS'goals'
p3310
I2
sS"Flynn's"
p3311
I1
sS'highest'
p3312
I1
sS'Chelsea'
p3313
I1
sS'he'
p3314
I6
sS'Kiper'
p3315
I1
sS'made'
p3316
I2
sS'Golf'
p3317
I1
sS"Moonlight'"
p3318
I1
sS'Proposed'
p3319
I1
sS'whether'
p3320
I2
sS'official'
p3321
I1
sS'Engaged'
p3322
I1
sS'Zlatan'
p3323
I1
sS'record'
p3324
I4
sS'Britain'
p3325
I1
sS'chairmanship'
p3326
I1
sS'limit'
p3327
I1
sS'offstage'
p3328
I1
sS'problem'
p3329
I1
sS'Care'
p3330
I4
sS'minutes'
p3331
I1
sS'Insurance'
p3332
I1
sS'CIA'
p3333
I1
sS'doesn\xe2'
p3334
I1
sS'horrific'
p3335
I1
sS'Writer'
p3336
I1
sS'twist'
p3337
I1
sS'beats'
p3338
I3
sS'websites'
p3339
I1
sS'flight'
p3340
I1
sS'Bankers'
p3341
I1
sS'Megan\xe2'
p3342
I1
sS'app\xc2'
p3343
I1
sS'Elites'
p3344
I1
sS'1950s'
p3345
I1
sS'Families'
p3346
I1
sS'Kushner'
p3347
I4
sS'deadly'
p3348
I1
sS'44'
p3349
I1
sS'Never'
p3350
I2
sS'treatment'
p3351
I2
sS'Wells'
p3352
I2
sS'Delivery'
p3353
I1
sS'Islamic'
p3354
I1
sS'other'
p3355
I1
sS'Understand'
p3356
I1
sS'Know'
p3357
I1
sS'Phase'
p3358
I1
sS'Pietersen'
p3359
I1
sS'Carolina'
p3360
I1
sS'Maria'
p3361
I1
sS'giddy'
p3362
I1
sS'Like'
p3363
I1
sS'Secrets'
p3364
I1
sS'Pitch'
p3365
I1
sS'stay'
p3366
I2
sS'April'
p3367
I1
sS'Future'
p3368
I1
sS'U'
I14
sS'Context'
p3369
I1
sS'Act'
p3370
I1
sS'repeal'
p3371
I1
sS'mastermind'
p3372
I1
sS'Musical'
p3373
I1
sS'South'
p3374
I1
sS'searches'
p3375
I1
sS'space'
p3376
I1
sS'Private'
p3377
I1
sS'Sleep'
p3378
I1
sS'Dems'
p3379
I1
sS'Ruck-gate'
p3380
I1
ssS'_mapping'
p3381
(dp3382
g18
I2961
sg19
I2079
sg20
I1237
sg21
I398
sg22
I1811
sg23
I773
sg24
I843
sg25
I1766
sg26
I2309
sg27
I1959
sg28
I2490
sg29
I1322
sg30
I2793
sg31
I1376
sg32
I845
sg33
I21
sg34
I1128
sg35
I2254
sg36
I1294
sg37
I3354
sg38
I3209
sg39
I1618
sg40
I2628
sg41
I1336
sg42
I949
sg43
I1454
sg44
I2433
sg45
I1048
sg46
I3379
sg47
I2115
sg48
I142
sg49
I2952
sg50
I3191
sg51
I577
sg52
I926
sg53
I965
sg54
I725
sg55
I3120
sg56
I3161
sg57
I699
sg58
I1908
sg59
I1102
sg60
I3232
sg61
I2018
sg62
I2580
sg63
I1022
sg64
I1301
sg65
I1137
sg66
I3107
sg67
I924
sg68
I974
sg69
I3024
sg70
I1874
sg71
I2529
sg72
I3106
sg73
I1494
sg74
I2040
sg75
I2632
sg76
I2596
sg77
I2461
sg78
I2140
sg79
I684
sg80
I329
sg81
I2763
sg82
I421
sg83
I1429
sg84
I269
sg85
I993
sg86
I3145
sg87
I2823
sg88
I2540
sg89
I2898
sg90
I212
sg91
I2495
sg92
I1728
sg93
I3320
sg94
I1965
sg95
I820
sg96
I1622
sg97
I3292
sg98
I345
sg99
I2078
sg100
I2112
sg101
I3254
sg102
I1778
sg103
I562
sg104
I1651
sg105
I2383
sg106
I1258
sg107
I1566
sg108
I3151
sg109
I3353
sg110
I3322
sg111
I1508
sg112
I2735
sg113
I123
sg114
I2366
sg115
I2730
sg116
I2270
sg117
I98
sg118
I2262
sg119
I800
sg120
I516
sg121
I1830
sg122
I2073
sg123
I1858
sg124
I3077
sg125
I784
sg126
I2616
sg127
I1677
sg128
I884
sg129
I2923
sg130
I50
sg131
I1978
sg132
I1159
sg133
I2351
sg134
I1144
sg135
I758
sg136
I1399
sg137
I2046
sg138
I2941
sg139
I619
sg140
I1828
sg141
I3108
sg142
I1300
sg143
I2027
sg144
I566
sg145
I3260
sg146
I1479
sg147
I844
sg148
I1824
sg149
I69
sg150
I2830
sg151
I1849
sg152
I968
sg153
I3391
sg154
I3125
sg155
I2392
sg156
I2224
sg157
I1713
sg158
I866
sg159
I933
sg160
I1051
sg161
I10
sg162
I2469
sg163
I96
sg164
I2187
sg165
I197
sg166
I1936
sg167
I576
sg168
I2562
sg169
I2909
sg170
I3288
sg171
I561
sg172
I2877
sg173
I2493
sg174
I3330
sg175
I641
sg176
I13
sg177
I2186
sg178
I3356
sg179
I3309
sg180
I1214
sg181
I1379
sg182
I552
sg183
I559
sg184
I1291
sg185
I3177
sg186
I1439
sg187
I2538
sg188
I2513
sg189
I23
sg190
I2789
sg191
I1872
sg192
I2287
sg193
I2711
sg194
I1743
sg195
I1047
sg196
I284
sg197
I451
sg198
I1646
sg199
I975
sg200
I444
sg201
I3088
sS'A'
I265
sg202
I2784
sg203
I1795
sg204
I3251
sg205
I89
sg206
I1037
sg207
I962
sg208
I638
sg209
I1481
sg210
I2760
sg211
I1796
sg212
I1062
sg213
I1334
sg214
I3257
sg215
I680
sg216
I2130
sg217
I3173
sg218
I1386
sg219
I2487
sg220
I685
sg221
I1478
sg222
I32
sg223
I210
sg224
I568
sg225
I2612
sg226
I2624
sg227
I2488
sg228
I440
sg229
I195
sg230
I582
sg231
I459
sg232
I1341
sg233
I2863
sg234
I3299
sg235
I2634
sg236
I2937
sg237
I2657
sg238
I808
sg239
I1031
sg240
I2988
sg241
I3283
sg242
I2279
sg243
I754
sg244
I1450
sg245
I1966
sg246
I765
sg247
I831
sg248
I1116
sg249
I394
sg250
I1545
sg251
I3175
sg252
I1869
sg253
I1732
sg254
I2385
sg255
I124
sg256
I3236
sg257
I1815
sg258
I1263
sg259
I2678
sg260
I2322
sg261
I2255
sg262
I1320
sg263
I180
sg264
I1650
sg265
I1781
sg266
I2510
sg267
I282
sg268
I1501
sg269
I874
sg270
I2751
sg271
I418
sg272
I509
sg273
I1823
sg274
I1106
sg275
I1453
sg276
I2670
sg277
I1098
sg278
I673
sg279
I620
sg280
I3368
sg281
I1725
sg282
I2967
sg283
I771
sg284
I1636
sg285
I1335
sg286
I176
sg287
I634
sg288
I2163
sg289
I3147
sg290
I1296
sg291
I437
sg292
I2896
sg293
I1962
sg294
I1956
sg295
I3136
sg296
I2148
sg297
I3139
sS'W'
I2874
sg298
I2812
sg299
I2304
sg300
I2893
sg301
I1418
sg302
I2413
sg303
I1447
sg304
I2640
sg305
I1526
sg306
I938
sg307
I476
sg308
I3149
sg309
I2339
sg310
I2218
sg311
I1902
sg312
I2411
sg313
I490
sg314
I2914
sg315
I187
sg316
I1986
sg317
I1899
sg318
I1530
sg319
I3382
sg320
I1560
sg321
I1124
sg12
I0
sg322
I2858
sg323
I1314
sg324
I287
sg325
I1469
sg326
I38
sg327
I2651
sg328
I1491
sg329
I3362
sg330
I832
sg331
I1627
sg332
I247
sg333
I293
sg334
I1245
sg335
I3116
sg336
I878
sg337
I1212
sg338
I984
sg339
I908
sg340
I1268
sg341
I1218
sg342
I1793
sg343
I1588
sg344
I1286
sg345
I1074
sg346
I2734
sg347
I1690
sg348
I734
sg349
I189
sg350
I1466
sg351
I2345
sg352
I1528
sg353
I1686
sg354
I522
sg355
I455
sg356
I1673
sg357
I1044
sg358
I2031
sg359
I462
sg360
I2500
sg361
I3223
sg362
I1225
sg363
I2034
sg364
I226
sg365
I1363
sg366
I145
sg367
I1881
sg368
I2264
sg369
I836
sS'-'
I384
sg370
I2280
sg371
I430
sg372
I871
sg373
I652
sg374
I2464
sg375
I815
sg376
I464
sS'\xc2'
I472
sg377
I2517
sg378
I452
sg379
I2834
sg380
I461
sg381
I1350
sg382
I454
sg383
I1213
sg384
I2809
sg385
I2212
sg386
I1104
sg387
I1747
sg388
I1194
sg389
I1786
sg390
I3258
sg391
I2013
sg392
I2261
sg393
I1021
sg394
I2305
sg395
I2409
sg396
I994
sg397
I1020
sg398
I2564
sg399
I2737
sg400
I2120
sg401
I1170
sg402
I3103
sg403
I1176
sg404
I1981
sg405
I2045
sg406
I2781
sg407
I1819
sg408
I842
sg409
I1081
sg410
I2700
sg411
I2556
sg412
I2076
sg413
I2259
sg414
I802
sg415
I1209
sg416
I2346
sg417
I2155
sg418
I2504
sg419
I907
sg420
I1131
sg421
I564
sg422
I3212
sg423
I546
sg424
I2123
sg425
I2866
sg426
I1654
sg427
I2568
sg428
I1639
sg429
I557
sg430
I397
sg431
I2647
sg432
I1758
sg433
I2492
sg434
I1297
sg435
I2664
sg436
I1611
sg437
I954
sS'X'
I1590
sg438
I2743
sg439
I2902
sg440
I3375
sg441
I1629
sg442
I1316
sg443
I1554
sg444
I958
sg445
I2998
sg446
I2636
sg447
I1387
sg448
I223
sg449
I1270
sg450
I2344
sg451
I3345
sg452
I1438
sg453
I1230
sg454
I2618
sg455
I642
sg456
I540
sg457
I2038
sg458
I202
sg459
I1342
sg460
I150
sg461
I3277
sg462
I492
sg463
I575
sg464
I474
sg465
I2638
sg466
I2860
sg467
I1075
sg468
I794
sg469
I1644
sg470
I2729
sg471
I485
sg472
I2928
sg473
I2009
sg474
I2016
sS'K'
I1391
sg475
I1928
sg476
I2205
sg477
I1224
sg478
I1442
sg479
I2674
sg480
I1993
sg481
I56
sg482
I228
sg483
I1767
sg484
I1500
sg485
I2486
sg486
I101
sg487
I2672
sg488
I2588
sg489
I1428
sg490
I1589
sg491
I20
sg492
I158
sg493
I738
sg494
I3128
sg495
I3137
sg496
I2185
sg497
I649
sg498
I973
sg499
I99
sg500
I1998
sg501
I2583
sg502
I2713
sg503
I2855
sg504
I858
sg505
I3065
sg506
I3271
sg507
I1579
sg508
I2236
sg509
I1435
sg510
I1694
sg511
I393
sg512
I2666
sg513
I149
sg514
I3155
sg515
I3015
sg516
I2549
sg517
I1007
sg518
I779
sg519
I2772
sg520
I1856
sg521
I593
sg522
I1886
sg523
I381
sg524
I518
sg525
I3138
sg526
I3381
sg527
I1446
sg528
I806
sg529
I868
sg530
I3105
sg531
I3002
sg532
I2134
sg533
I2973
sg534
I268
sg535
I1663
sg536
I1708
sg537
I2456
sg538
I2948
sg539
I2152
sg540
I1980
sg541
I2949
sg542
I1254
sg543
I1463
sg544
I1265
sg545
I348
sg546
I3082
sg547
I643
sg548
I1392
sg549
I2104
sg550
I1079
sg551
I2472
sg552
I35
sg553
I2170
sg554
I999
sg555
I3266
sg556
I1943
sg557
I1997
sg558
I2983
sg559
I2861
sg560
I2746
sg561
I2569
sg562
I154
sg563
I2011
sg564
I774
sg565
I2875
sg566
I1729
sg567
I63
sg568
I2738
sg569
I3369
sg570
I2484
sg571
I1284
sg572
I3253
sg573
I1931
sg574
I3216
sg575
I2609
sg576
I1259
sg577
I2843
sg578
I1135
sg579
I213
sg580
I1168
sg581
I1836
sg582
I1193
sg583
I1253
sg584
I3325
sg585
I1167
sg586
I3231
sg587
I1739
sg588
I3143
sg589
I2370
sg590
I3066
sg591
I3279
sg592
I723
sg593
I608
sg594
I2039
sg595
I2921
sg596
I2071
sg597
I3095
sg598
I2311
sg599
I117
sg600
I742
sg601
I1367
sg602
I2459
sg603
I1499
sg604
I3222
sg605
I1173
sg606
I79
sg607
I2007
sg608
I399
sg609
I604
sg610
I439
sg611
I1505
sg612
I2467
sg613
I1876
sg614
I2857
sg615
I90
sg616
I1112
sg617
I646
sg618
I2438
sg619
I1509
sg620
I3178
sg621
I3324
sg622
I538
sg623
I169
sg624
I2696
sg625
I2269
sg626
I1765
sg627
I1440
sg628
I3363
sg629
I400
sg630
I872
sg631
I1445
sg632
I2050
sg633
I479
sg634
I233
sg635
I2714
sg636
I816
sS'D'
I1657
sg637
I2271
sg638
I457
sg639
I2062
sg640
I1475
sg641
I869
sg642
I442
sg643
I3027
sg644
I947
sg645
I2922
sg646
I2637
sg647
I1151
sg648
I178
sg649
I2849
sg650
I545
sg651
I676
sg652
I957
sg653
I2204
sg654
I436
sg655
I301
sg656
I125
sg657
I151
sg658
I863
sg659
I1191
sg660
I1804
sg661
I71
sg662
I701
sg663
I2718
sg664
I1704
sg665
I753
sg666
I1449
sg667
I2872
sg668
I1039
sg669
I1136
sg670
I542
sg671
I1702
sg672
I126
sg673
I1032
sg674
I1893
sg675
I2
sg676
I1999
sg677
I2300
sg678
I530
sg679
I1211
sg680
I2402
sg681
I1555
sg682
I2615
sg683
I980
sg684
I483
sg685
I1667
sg686
I390
sg687
I9
sg688
I1863
sg689
I763
sg690
I1904
sg691
I663
sg692
I855
sg693
I1129
sg694
I1546
sg695
I1307
sg696
I770
sg697
I2720
sg698
I2865
sg699
I2900
sg700
I3014
sg701
I1444
sg702
I1332
sg703
I612
sg704
I2477
sg705
I3003
sg706
I2842
sg707
I2525
sg708
I746
sg709
I1015
sg710
I1280
sg711
I1180
sg712
I2429
sg713
I1900
sg714
I3153
sg715
I1537
sg716
I1774
sg717
I262
sg718
I281
sg719
I727
sg720
I205
sg721
I2673
sg722
I294
sg723
I2869
sg724
I450
sg725
I606
sg726
I181
sg727
I323
sg728
I730
sg729
I887
sg730
I2801
sg731
I1680
sg732
I3225
sg733
I1000
sg734
I1760
sg735
I2779
sg736
I1982
sg737
I3286
sg738
I1114
sg739
I1406
sg740
I2970
sg741
I1223
sg742
I928
sg743
I2665
sg744
I1941
sg745
I3340
sg746
I1378
sg747
I981
sg748
I733
sg749
I253
sg750
I467
sg751
I1243
sg752
I1434
sg753
I1220
sg754
I1924
sg755
I2374
sg756
I3134
sg757
I2442
sg758
I2630
sg759
I3278
sg760
I2182
sg761
I805
sg762
I132
sg763
I225
sg764
I88
sg765
I2520
sg766
I2697
sg767
I709
sg768
I498
sg769
I3385
sg770
I2620
sg771
I3167
sg772
I2296
sg773
I2931
sg774
I2733
sg775
I1961
sg776
I2035
sg777
I460
sg778
I2042
sg779
I1458
sg780
I2708
sg781
I163
sg782
I2230
sg783
I2293
sg784
I3272
sg785
I1485
sg786
I3282
sg787
I2990
sg788
I656
sg789
I2839
sg790
I2590
sg791
I2993
sg792
I667
sg793
I1777
sg794
I1288
sg795
I2421
sg796
I2266
sg797
I2904
sg798
I778
sg799
I2361
sg800
I501
sg801
I2084
sg802
I2481
sg803
I2570
sg804
I143
sg805
I81
sg806
I412
sg807
I803
sg808
I596
sg809
I1925
sg810
I826
sg811
I192
sg812
I2088
sg813
I2067
sg814
I809
sg815
I2431
sg816
I2850
sg817
I668
sg818
I2281
sg819
I1615
sg820
I1974
sg821
I3062
sg822
I3144
sg823
I966
sg824
I1812
sg825
I493
sg826
I64
sg827
I2786
sg828
I630
sg829
I2303
sg830
I1533
sg831
I799
sg832
I2237
sg833
I2234
sg834
I475
sg835
I167
sg836
I58
sg837
I140
sg838
I2422
sg839
I2206
sg840
I449
sg841
I1574
sg842
I1125
sg843
I1678
sg844
I1506
sg845
I2748
sg846
I857
sg847
I822
sg848
I1910
sg849
I1898
sg850
I3246
sg851
I3160
sg852
I1511
sg853
I2663
sg854
I52
sg855
I2836
sg856
I2217
sg857
I625
sg858
I1605
sg859
I574
sg860
I1206
sg861
I1968
sg862
I3079
sg863
I797
sg864
I3023
sg865
I1035
sg866
I3072
sg867
I2389
sg868
I2338
sg869
I1126
sg870
I2541
sg871
I317
sg872
I1344
sg873
I705
sg874
I1675
sg875
I465
sg876
I2289
sg877
I1415
sg878
I2797
sg879
I1152
sg880
I2313
sg881
I73
sg882
I586
sg883
I556
sg884
I851
sg885
I152
sg886
I2223
sg887
I2768
sg888
I27
sg889
I1821
sg890
I3121
sg891
I2156
sg892
I1813
sg893
I2932
sg894
I1217
sg895
I480
sg896
I2225
sg897
I2552
sg898
I1871
sg899
I3083
sg900
I1915
sg901
I2675
sg902
I76
sg903
I2221
sg904
I2475
sg905
I47
sg906
I1990
sg907
I57
sg908
I1914
sg909
I750
sg910
I1101
sg911
I1276
sg912
I302
sg913
I2920
sg914
I1816
sg915
I2862
sg916
I2576
sg917
I2256
sg918
I581
sg919
I875
sg920
I2822
sg921
I2835
sg922
I2750
sg923
I600
sg924
I3224
sg925
I587
sg926
I2594
sg927
I2252
sg928
I2048
sg929
I3189
sg930
I1197
sg931
I1617
sg932
I1568
sg933
I1365
sg934
I1117
sg935
I3168
sg936
I2098
sg937
I357
sg938
I1160
sg939
I1033
sg940
I82
sg941
I1894
sg942
I2238
sg943
I1063
sg944
I1865
sg945
I3026
sg946
I2536
sg947
I1803
sg948
I34
sg949
I2396
sg950
I1100
sg951
I567
sg952
I2417
sg953
I601
sg954
I946
sg955
I748
sg956
I1271
sg957
I1165
sg958
I2715
sg959
I3102
sg960
I1779
sg961
I1895
sg962
I2110
sg963
I3135
sg964
I110
sg965
I2307
sg966
I3051
sg967
I347
sg968
I3181
sg969
I1374
sg970
I3372
sg971
I511
sg972
I1541
sg973
I591
sg974
I2887
sg975
I237
sg976
I930
sg977
I2943
sg978
I80
sg979
I2019
sg980
I3295
sg981
I728
sg982
I2113
sg983
I1624
sg984
I2453
sg985
I2000
sg986
I2722
sg987
I1510
sg988
I2064
sg989
I3227
sg990
I1609
sg991
I3053
sg992
I2803
sg993
I616
sg994
I427
sg995
I1977
sg996
I798
sg997
I199
sg998
I2567
sg999
I2545
sg1000
I2365
sg1001
I1571
sg1002
I939
sg1003
I2002
sg1004
I3028
sg1005
I1094
sg1006
I2884
sg1007
I2652
sg1008
I1185
sg1009
I16
sg1010
I847
sg1011
I170
sg1012
I370
sS'1'
I950
sg1013
I2333
sg1014
I3199
sg1015
I236
sg1016
I689
sg1017
I940
sg1018
I786
sg1019
I26
sg1020
I760
sg1021
I211
sg1022
I3031
sg1023
I867
sg1024
I1091
sg1025
I1239
sg1026
I1602
sg1027
I1471
sg1028
I671
sg1029
I2022
sg1030
I2804
sg1031
I1049
sg1032
I1257
sg1033
I1668
sg1034
I976
sg1035
I2201
sg1036
I2688
sg1037
I1692
sg1038
I2077
sg1039
I135
sg1040
I1431
sg1041
I367
sg1042
I2739
sg1043
I1118
sg1044
I3269
sg1045
I434
sg1046
I2308
sg1047
I30
sg1048
I382
sg1049
I2827
sg1050
I917
sg1051
I2553
sg1052
I18
sg1053
I255
sg1054
I379
sg1055
I469
sg1056
I232
sg1057
I2348
sg1058
I1671
sg1059
I2377
sg1060
I1890
sg1061
I2052
sg1062
I1208
sg1063
I84
sg1064
I3234
sg1065
I2473
sg1066
I2769
sg1067
I617
sg1068
I513
sg1069
I1195
sg1070
I1984
sg1071
I1514
sg1072
I2794
sg1073
I2512
sg1074
I3110
sg1075
I3179
sg1076
I373
sg1077
I790
sg1078
I644
sg1079
I2882
sg1080
I828
sg1081
I286
sg1082
I2955
sg1083
I2846
sg1084
I53
sg1085
I303
sg1086
I3171
sg1087
I2773
sg1088
I2095
sg1089
I1380
sg1090
I1596
sg1091
I3007
sg1092
I505
sg1093
I193
sg1094
I696
sg1095
I1477
sg1096
I2043
sg1097
I3285
sg1098
I2250
sg1099
I1330
sg1100
I2886
sg1101
I527
sg1102
I448
sg1103
I3276
sg1104
I2813
sg1105
I2528
sg1106
I1401
sg1107
I1563
sg1108
I1822
sg1109
I2290
sg1110
I144
sg1111
I840
sg1112
I1313
sg1113
I438
sg1114
I1426
sg1115
I2749
sg1116
I2754
sg1117
I3081
sg1118
I1957
sS'G'
I903
sg1119
I336
sg1120
I769
sg1121
I922
sg1122
I3364
sg1123
I290
sg1124
I1249
sg1125
I3068
sg1126
I1099
sg1127
I945
sg1128
I2056
sg1129
I2480
sg1130
I1861
sg1131
I569
sg1132
I1930
sg1133
I599
sg1134
I3291
sg1135
I344
sg1136
I356
sg1137
I1612
sg1138
I2881
sg1139
I512
sg1140
I1918
sg1141
I520
sg1142
I804
sg1143
I2497
sg1144
I1787
sg1145
I692
sg1146
I2755
sg1147
I718
sg1148
I2561
sg1149
I2136
sg1150
I1264
sg1151
I2868
sg1152
I1113
sg1153
I277
sg1154
I1384
sg1155
I2661
sg1156
I1801
sg1157
I2258
sg1158
I1274
sg1159
I3346
sg1160
I1868
sg1161
I1163
sg1162
I1662
sg1163
I2093
sg1164
I1843
sg1165
I179
sg1166
I2171
sg1167
I3261
sg1168
I3270
sg1169
I3194
sg1170
I1513
sS'2'
I405
sg1171
I1103
sg1172
I3190
sg1173
I1016
sg1174
I1441
sg1175
I898
sg1176
I2752
sg1177
I2126
sg1178
I2193
sg1179
I639
sg1180
I2838
sg1181
I3274
sg1182
I497
sg1183
I250
sg1184
I2610
sg1185
I2285
sg1186
I77
sg1187
I3094
sg1188
I378
sg1189
I1156
sg1190
I2496
sg1191
I603
sg1192
I2158
sg1193
I2635
sg1194
I3170
sg1195
I1421
sg1196
I1054
sg1197
I1516
sg1198
I1061
sg1199
I340
sg1200
I321
sg1201
I585
sg1202
I889
sg1203
I2593
sg1204
I3355
sg1205
I1425
sg1206
I782
sg1207
I470
sg1208
I1396
sg1209
I107
sg1210
I3337
sg1211
I305
sg1212
I1556
sg1213
I1459
sg1214
I1085
sg1215
I1076
sg1216
I2063
sg1217
I2434
sg1218
I1837
sg1219
I3192
sg1220
I1283
sg1221
I249
sg1222
I2677
sg1223
I3287
sg1224
I2906
sg1225
I2880
sg1226
I1005
sg1227
I2030
sg1228
I1202
sg1229
I2065
sg1230
I1087
sg1231
I1960
sg1232
I3174
sg1233
I1395
sg1234
I2956
sg1235
I114
sg1236
I941
sg1237
I500
sg1238
I1652
sg1239
I2607
sg1240
I2092
sg1241
I611
sg1242
I221
sg1243
I299
sg1244
I3235
sg1245
I796
sg1246
I2864
sg1247
I2587
sg1248
I1523
sg1249
I2209
sg1250
I1086
sg1251
I2707
sg1252
I535
sg1253
I2579
sg1254
I2911
sg1255
I383
sg1256
I2160
sg1257
I1013
sg1258
I2106
sg1259
I243
sg1260
I2662
sg1261
I2188
sg1262
I1770
sg1263
I234
sg1264
I2203
sg1265
I2535
sg1266
I75
sg1267
I1198
sg1268
I257
sg1269
I1073
sg1270
I1483
sg1271
I59
sg1272
I841
sg1273
I2626
sg1274
I755
sg1275
I1310
sg1276
I1807
sg1277
I2485
sg1278
I2890
sg1279
I1260
sg1280
I2316
sg1281
I1267
sg1282
I3098
sg1283
I2427
sg1284
I3197
sg1285
I2183
sg1286
I793
sg1287
I1236
sg1288
I2777
sg1289
I2406
sg1290
I65
sg1291
I1184
sg1292
I2355
sg1293
I3338
sg1294
I309
sg1295
I3250
sg1296
I2942
sg1297
I1309
sg1298
I2981
sg1299
I2282
sg1300
I1740
sg1301
I346
sg1302
I666
sg1303
I2446
sg1304
I693
sg1305
I319
sg1306
I1575
sg1307
I2184
sg1308
I1088
sg1309
I1312
sg1310
I1572
sg1311
I62
sg1312
I920
sg1313
I2740
sg1314
I2278
sg1315
I3100
sg1316
I2991
sg1317
I2916
sg1318
I876
sg1319
I2233
sg1320
I1604
sg1321
I713
sg1322
I2548
sg1323
I1780
sg1324
I2008
sg1325
I1319
sg1326
I1433
sg1327
I3091
sg1328
I942
sg1329
I1181
sg1330
I2379
sg1331
I316
sg1332
I2851
sg1333
I1148
sg1334
I2393
sg1335
I2732
sg1336
I219
sS'3'
I1983
sg1337
I2939
sg1338
I1515
sg1339
I936
sg1340
I1971
sg1341
I2509
sg1342
I87
sg1343
I1844
sg1344
I953
sg1345
I918
sg1346
I2164
sg1347
I2543
sg1348
I1798
sg1349
I1610
sg1350
I3273
sg1351
I1403
sg1352
I349
sg1353
I1004
sg1354
I2274
sg1355
I1802
sg1356
I2840
sg1357
I3307
sg1358
I3063
sg1359
I2474
sg1360
I2146
sg1361
I691
sg1362
I2622
sg1363
I1090
sg1364
I2275
sg1365
I119
sg1366
I2390
sg1367
I2523
sg1368
I780
sg1369
I2997
sg1370
I3154
sg1371
I2591
sg1372
I2702
sg1373
I1161
sg1374
I895
sg1375
I2032
sg1376
I1879
sg1377
I3033
sg1378
I1009
sg1379
I341
sg1380
I408
sg1381
I2502
sg1382
I1672
sg1383
I2426
sg1384
I3268
sg1385
I1888
sg1386
I1443
sg1387
I2436
sg1388
I1722
sg1389
I810
sg1390
I3111
sg1391
I1002
sg1392
I3131
sg1393
I1058
sg1394
I1482
sg1395
I1719
sg1396
I2820
sg1397
I3376
sg1398
I909
sg1399
I1096
sg1400
I2819
sg1401
I881
sg1402
I297
sg1403
I416
sg1404
I1958
sg1405
I2629
sg1406
I1325
sg1407
I3265
sg1408
I2972
sg1409
I2055
sg1410
I1741
sg1411
I45
sg1412
I992
sg1413
I1932
sg1414
I334
sg1415
I1926
sg1416
I2082
sg1417
I1097
sg1418
I2599
sg1419
I2745
sg1420
I3378
sg1421
I1502
sg1422
I72
sg1423
I1963
sg1424
I2511
sg1425
I1127
sg1426
I1405
sg1427
I967
sg1428
I3188
sg1429
I2121
sg1430
I216
sg1431
I2717
sg1432
I1951
sg1433
I2641
sg1434
I2667
sg1435
I217
sg1436
I1989
sg1437
I3010
sg1438
I2968
sg1439
I1204
sg1440
I1940
sg1441
I2181
sg1442
I3247
sg1443
I824
sg1444
I1203
sg1445
I1487
sg1446
I703
sg1447
I963
sg1448
I1003
sg1449
I1794
sg1450
I2584
sg1451
I48
sg1452
I2099
sg1453
I1496
sg1454
I308
sg1455
I669
sg1456
I1934
sS'I'
I358
sg1457
I1632
sg1458
I2783
sg1459
I736
sg1460
I2017
sg1461
I1041
sg1462
I484
sg1463
I2694
sg1464
I1060
sg1465
I2248
sg1466
I3259
sg1467
I3319
sg1468
I598
sg1469
I2219
sg1470
I173
sg1471
I3117
sg1472
I332
sg1473
I1238
sg1474
I331
sg1475
I2323
sg1476
I1911
sg1477
I3237
sg1478
I541
sg1479
I1302
sg1480
I739
sg1481
I3052
sg1482
I121
sg1483
I1964
sg1484
I1030
sg1485
I2518
sg1486
I2962
sg1487
I1721
sg1488
I1130
sg1489
I333
sg1490
I2329
sg1491
I3203
sg1492
I560
sg1493
I2407
sg1494
I425
sg1495
I1769
sg1496
I657
sg1497
I3084
sg1498
I2645
sg1499
I2328
sg1500
I1519
sg1501
I1110
sg1502
I2161
sg1503
I2910
sg1504
I2526
sg1505
I264
sg1506
I3158
sS'4'
I595
sg1507
I2226
sg1508
I2273
sg1509
I3159
sg1510
I2944
sg1511
I5
sg1512
I2387
sg1513
I2775
sg1514
I708
sg1515
I248
sg1516
I2318
sg1517
I819
sg1518
I1775
sg1519
I1142
sg1520
I982
sg1521
I3221
sg1522
I2980
sg1523
I2533
sg1524
I3350
sg1525
I2454
sg1526
I554
sg1527
I2242
sg1528
I1175
sg1529
I1370
sg1530
I1059
sg1531
I3124
sg1532
I1873
sg1533
I3228
sS't'
I767
sg1534
I1372
sg1535
I700
sg1536
I1402
sg1537
I801
sg1538
I2107
sg1539
I2125
sg1540
I1057
sg1541
I681
sg1542
I1397
sg1543
I2336
sg1544
I263
sg1545
I724
sg1546
I1474
sg1547
I1289
sg1548
I2037
sg1549
I1006
sg1550
I102
sg1551
I3240
sg1552
I2544
sg1553
I3038
sg1554
I1108
sg1555
I2001
sg1556
I687
sg1557
I2053
sg1558
I2452
sg1559
I674
sg1560
I621
sg1561
I42
sg1562
I2358
sg1563
I3214
sg1564
I146
sg1565
I1599
sg1566
I3019
sg1567
I116
sg1568
I1026
sg1569
I2388
sg1570
I2790
sg1571
I2443
sg1572
I131
sg1573
I1071
sg1574
I404
sg1575
I2698
sg1576
I74
sg1577
I33
sg1578
I2623
sg1579
I11
sg1580
I70
sg1581
I254
sg1582
I1969
sg1583
I2021
sg1584
I1751
sg1585
I3373
sg1586
I168
sg1587
I813
sg1588
I1845
sg1589
I361
sg1590
I29
sg1591
I3092
sg1592
I2619
sg1593
I2418
sg1594
I856
sg1595
I740
sg1596
I1834
sg1597
I932
sg1598
I2532
sg1599
I324
sg1600
I833
sg1601
I1973
sg1602
I224
sg1603
I2603
sg1604
I1084
sg1605
I1315
sg1606
I1014
sg1607
I3097
sg1608
I955
sS'J'
I2924
sg1609
I2208
sg1610
I2571
sg1611
I508
sg1612
I2892
sg1613
I1465
sg1614
I1456
sg1615
I141
sg1616
I640
sg1617
I3089
sg1618
I2731
sg1619
I3239
sg1620
I1550
sg1621
I2897
sg1622
I256
sg1623
I1707
sg1624
I2927
sg1625
I1149
sg1626
I2614
sg1627
I3164
sg1628
I2547
sg1629
I1366
sg1630
I859
sg1631
I238
sg1632
I919
sg1633
I97
sg1634
I862
sg1635
I473
sg1636
I409
sg1637
I2102
sg1638
I2954
sg1639
I1684
sg1640
I927
sg1641
I2965
sg1642
I1343
sg1643
I78
sg1644
I1878
sg1645
I133
sg1646
I2381
sg1647
I3206
sg1648
I1486
sg1649
I165
sg1650
I2766
sg1651
I3359
sg1652
I1700
sg1653
I547
sg1654
I2029
sg1655
I2726
sg1656
I1946
sg1657
I827
sg1658
I2012
sg1659
I2190
sg1660
I2680
sS'5'
I1935
sg1661
I1132
sg1662
I558
sg1663
I3080
sg1664
I744
sg1665
I3321
sg1666
I39
sg1667
I2198
sg1668
I2131
sg1669
I3059
sg1670
I1140
sg1671
I2996
sg1672
I1901
sg1673
I2649
sg1674
I1539
sg1675
I1352
sg1676
I3365
sg1677
I1432
sg1678
I729
sg1679
I1273
sg1680
I385
sg1681
I360
sg1682
I2294
sg1683
I2572
sg1684
I1219
sg1685
I2449
sg1686
I2197
sg1687
I1292
sg1688
I2288
sg1689
I1820
sg1690
I2327
sg1691
I1517
sg1692
I2894
sg1693
I579
sg1694
I2302
sg1695
I1870
sg1696
I679
sg1697
I307
sg1698
I521
sg1699
I2934
sg1700
I2103
sg1701
I51
sg1702
I3195
sg1703
I2286
sg1704
I3013
sg1705
I1724
sg1706
I1361
sg1707
I785
sg1708
I2945
sg1709
I12
sg1710
I2489
sg1711
I1923
sg1712
I1174
sg1713
I683
sg1714
I2581
sg1715
I3162
sg1716
I2476
sg1717
I3383
sg1718
I2903
sg1719
I519
sg1720
I3384
sg1721
I3035
sg1722
I1587
sg1723
I280
sg1724
I3204
sg1725
I19
sg1726
I1689
sg1727
I2530
sg1728
I3004
sg1729
I688
sg1730
I2463
sg1731
I1749
sg1732
I2899
sg1733
I1247
sg1734
I2550
sg1735
I1495
sg1736
I654
sg1737
I261
sg1738
I1790
sg1739
I2831
sg1740
I2397
sg1741
I978
sg1742
I1064
sg1743
I2006
sg1744
I120
sg1745
I2216
sg1746
I507
sg1747
I3034
sg1748
I1949
sg1749
I3334
sg1750
I2837
sg1751
I698
sg1752
I549
sg1753
I3386
sg1754
I292
sg1755
I1472
sg1756
I775
sg1757
I1177
sg1758
I3326
sg1759
I2363
sg1760
I1991
sg1761
I1275
sg1762
I2716
sg1763
I1053
sg1764
I1591
sg1765
I2498
sg1766
I3252
sg1767
I3032
sg1768
I2757
sg1769
I747
sg1770
I3207
sg1771
I1947
sg1772
I22
sg1773
I2507
sg1774
I2601
sg1775
I2582
sg1776
I2144
sg1777
I2494
sg1778
I495
sg1779
I1346
sg1780
I721
sg1781
I2340
sg1782
I2026
sg1783
I690
sg1784
I1880
sg1785
I633
sg1786
I1293
sg1787
I403
sg1788
I3243
sg1789
I759
sg1790
I1706
sg1791
I1701
sg1792
I2466
sg1793
I2276
sg1794
I3058
sg1795
I818
sg1796
I2791
sg1797
I1069
sg1798
I3186
sg1799
I2873
sg1800
I2554
sg1801
I1619
sg1802
I1451
sg1803
I3148
sg1804
I2682
sg1805
I85
sg1806
I3213
sg1807
I1201
sg1808
I2901
sg1809
I3304
sg1810
I2559
sg1811
I1832
sg1812
I2989
sg1813
I514
sg1814
I1227
sg1815
I36
sg1816
I651
sg1817
I1985
sg1818
I3305
sg1819
I573
sg1820
I1621
sg1821
I2149
sg1822
I1242
sg1823
I2441
sg1824
I756
sg1825
I838
sg1826
I2505
sg1827
I2003
sg1828
I241
sg1829
I1771
sg1830
I2091
sg1831
I66
sg1832
I1850
sg1833
I424
sg1834
I2761
sg1835
I2950
sg1836
I2153
sg1837
I2984
sg1838
I2251
sg1839
I2243
sg1840
I242
sg1841
I1362
sg1842
I1052
sg1843
I1413
sg1844
I2701
sg1845
I83
sg1846
I1464
sg1847
I2508
sg1848
I571
sg1849
I741
sg1850
I1592
sg1851
I3370
sS'v'
I148
sg1852
I1976
sg1853
I3090
sg1854
I209
sg1855
I273
sg1856
I1711
sg1857
I320
sg1858
I3001
sg1859
I1371
sg1860
I787
sg1861
I1826
sg1862
I2081
sg1863
I2292
sg1864
I2326
sg1865
I2979
sg1866
I2676
sg1867
I1329
sg1868
I672
sg1869
I300
sg1870
I157
sg1871
I2356
sg1872
I1240
sg1873
I2139
sg1874
I2101
sg1875
I1295
sg1876
I3215
sg1877
I1855
sg1878
I704
sg1879
I1972
sg1880
I456
sg1881
I2247
sg1882
I28
sg1883
I1581
sg1884
I2222
sg1885
I1584
sg1886
I1929
sg1887
I2085
sg1888
I1809
sg1889
I162
sg1890
I2347
sg1891
I1607
sS'a'
I260
sg1892
I1679
sg1893
I3205
sg1894
I2808
sg1895
I477
sg1896
I2687
sg1897
I2320
sg1898
I1489
sg1899
I1565
sg1900
I694
sg1901
I731
sg1902
I1089
sg1903
I93
sg1904
I2010
sg1905
I136
sg1906
I3185
sg1907
I662
sg1908
I2465
sg1909
I1490
sg1910
I660
sg1911
I533
sg1912
I2378
sg1913
I1582
sg1914
I1885
sg1915
I3040
sg1916
I2004
sg1917
I252
sg1918
I548
sg1919
I3036
sg1920
I2024
sg1921
I368
sg1922
I2128
sg1923
I2566
sg1924
I1424
sg1925
I388
sg1926
I1518
sg1927
I1034
sg1928
I661
sg1929
I2068
sg1930
I3141
sg1931
I997
sg1932
I2600
sg1933
I1805
sg1934
I1171
sg1935
I3029
sg1936
I1200
sg1937
I1246
sg1938
I1891
sg1939
I1806
sg1940
I2189
sg1941
I2132
sg1942
I1860
sg1943
I1536
sg1944
I3389
sg1945
I2090
sg1946
I2847
sg1947
I2759
sg1948
I2633
sg1949
I3333
sg1950
I1788
sg1951
I837
sg1952
I2423
sg1953
I3367
sg1954
I912
sg1955
I3308
sg1956
I1862
sg1957
I952
sg1958
I951
sg1959
I1691
sg1960
I1070
sg1961
I880
sg1962
I433
sg1963
I3045
sg1964
I726
sg1965
I24
sg1966
I1603
sg1967
I2458
sg1968
I636
sg1969
I1606
sg1970
I1158
sg1971
I208
sg1972
I2232
sg1973
I2935
sg1974
I2787
sg1975
I1338
sg1976
I2946
sg1977
I743
sg1978
I3075
sg1979
I2691
sg1980
I2995
sg1981
I1233
sg1982
I2246
sg1983
I3056
sg1984
I3351
sg1985
I2644
sg1986
I25
sg1987
I1859
sS'7'
I618
sg1988
I3311
sg1989
I153
sg1990
I2627
sg1991
I1988
sg1992
I1189
sg1993
I883
sg1994
I1261
sg1995
I411
sg1996
I722
sg1997
I2585
sg1998
I3300
sg1999
I1393
sg2000
I3017
sg2001
I1147
sg2002
I8
sg2003
I2145
sg2004
I374
sg2005
I2574
sg2006
I1950
sg2007
I1196
sg2008
I3211
sg2009
I1133
sg2010
I343
sg2011
I1577
sg2012
I2542
sg2013
I2611
sg2014
I523
sg2015
I2684
sg2016
I1012
sg2017
I1078
sg2018
I2404
sg2019
I2805
sg2020
I1192
sg2021
I849
sg2022
I1082
sg2023
I1411
sg2024
I3198
sg2025
I3018
sg2026
I969
sg2027
I276
sg2028
I1166
sg2029
I2785
sg2030
I1695
sg2031
I2094
sg2032
I2695
sg2033
I1281
sg2034
I1269
sg2035
I40
sg2036
I906
sg2037
I1408
sg2038
I1733
sg2039
I1883
sg2040
I105
sg2041
I2373
sg2042
I2066
sg2043
I2917
sg2044
I834
sg2045
I2445
sg2046
I1493
sg2047
I504
sg2048
I3070
sg2049
I389
sg2050
I310
sg2051
I3011
sg2052
I2546
sg2053
I1520
sg2054
I1351
sg2055
I531
sg2056
I1586
sg2057
I2848
sg2058
I1484
sg2059
I3132
sg2060
I1178
sg2061
I410
sg2062
I812
sg2063
I1580
sg2064
I3380
sg2065
I971
sg2066
I1139
sg2067
I2705
sg2068
I751
sg2069
I1614
sg2070
I637
sg2071
I766
sg2072
I937
sg2073
I3183
sg2074
I890
sg2075
I525
sg2076
I1712
sg2077
I2210
sg2078
I2876
sg2079
I846
sg2080
I2119
sg2081
I528
sg2082
I1205
sg2083
I2124
sg2084
I3244
sg2085
I1298
sg2086
I2249
sg2087
I1278
sg2088
I2829
sg2089
I337
sg2090
I2268
sg2091
I1531
sg2092
I2235
sg2093
I584
sg2094
I288
sg2095
I420
sg2096
I3048
sg2097
I3352
sg2098
I214
sg2099
I270
sg2100
I184
sg2101
I1738
sg2102
I2918
sg2103
I446
sg2104
I1601
sg2105
I3220
sg2106
I1503
sg2107
I296
sg2108
I3336
sg2109
I835
sg2110
I2165
sg2111
I3289
sS'\xe2'
I453
sg2112
I2437
sg2113
I3255
sg2114
I200
sg2115
I848
sg2116
I3093
sg2117
I227
sg2118
I128
sg2119
I2253
sg2120
I137
sg2121
I2244
sg2122
I1473
sg2123
I1649
sg2124
I2889
sg2125
I2871
sg2126
I1842
sg2127
I2960
sg2128
I910
sg2129
I1699
sg2130
I92
sg2131
I2368
sg2132
I900
sg2133
I865
sg2134
I1349
sg2135
I2229
sg2136
I3347
sg2137
I54
sg2138
I1825
sS'8'
I1792
sg2139
I2514
sg2140
I2410
sg2141
I2291
sg2142
I677
sg2143
I1731
sg2144
I1306
sg2145
I2192
sg2146
I1188
sg2147
I1018
sg2148
I2408
sg2149
I1882
sg2150
I665
sg2151
I1791
sg2152
I2420
sg2153
I1773
sg2154
I2462
sg2155
I517
sg2156
I1748
sg2157
I2341
sg2158
I127
sg2159
I177
sg2160
I2154
sg2161
I3293
sg2162
I1455
sg2163
I1407
sg2164
I860
sg2165
I1817
sg2166
I354
sg2167
I2767
sg2168
I109
sg2169
I2166
sg2170
I1846
sg2171
I313
sg2172
I2796
sg2173
I2349
sg2174
I1207
sg2175
I1534
sg2176
I291
sg2177
I207
sg2178
I695
sg2179
I3342
sg2180
I3316
sg2181
I1109
sg2182
I1903
sg2183
I2335
sg2184
I3054
sg2185
I1613
sg2186
I203
sg2187
I2036
sg2188
I463
sg2189
I1736
sg2190
I2331
sg2191
I2888
sg2192
I1875
sg2193
I2058
sg2194
I1920
sg2195
I1324
sg2196
I1389
sg2197
I1327
sg2198
I2005
sS's'
I222
sg2199
I239
sg2200
I2180
sg2201
I1215
sg2202
I2933
sg2203
I1527
sg2204
I2669
sg2205
I3249
sg2206
I172
sg2207
I1535
sg2208
I1134
sg2209
I2372
sg2210
I2929
sg2211
I3184
sg2212
I2742
sg2213
I1410
sg2214
I2679
sg2215
I3187
sg2216
I3115
sg2217
I3196
sg2218
I1222
sg2219
I1308
sg2220
I3374
sg2221
I330
sg2222
I1703
sg2223
I2159
sg2224
I115
sg2225
I2522
sg2226
I1938
sg2227
I2908
sg2228
I2905
sg2229
I2977
sg2230
I3016
sg2231
I1593
sg2232
I2060
sg2233
I931
sg2234
I959
sg2235
I271
sg2236
I544
sg2237
I2118
sg2238
I1457
sg2239
I191
sg2240
I1631
sg2241
I1764
sg2242
I2228
sg2243
I1385
sg2244
I2655
sg2245
I2116
sg2246
I1887
sg2247
I714
sg2248
I2648
sg2249
I365
sg2250
I534
sg2251
I314
sg2252
I3146
sg2253
I2367
sg2254
I2097
sg2255
I983
sg2256
I3241
sg2257
I1600
sg2258
I990
sg2259
I3073
sg2260
I915
sg2261
I583
sg2262
I3037
sg2263
I2519
sg2264
I1634
sg2265
I1417
sg2266
I2202
sg2267
I231
sg2268
I3329
sg2269
I1683
sg2270
I1623
sg2271
I944
sg2272
I570
sg2273
I2096
sg2274
I934
sg2275
I2332
sg2276
I2833
sg2277
I2966
sg2278
I897
sg2279
I2321
sg2280
I2315
sg2281
I103
sg2282
I2297
sg2283
I1412
sg2284
I2283
sg2285
I823
sg2286
I853
sg2287
I3030
sg2288
I3335
sg2289
I2825
sg2290
I1423
sg2291
I2086
sg2292
I426
sg2293
I3087
sg2294
I3049
sg2295
I2856
sg2296
I2070
sg2297
I1937
sg2298
I2425
sg2299
I447
sg2300
I3360
sg2301
I2516
sg2302
I3238
sg2303
I1833
sg2304
I2891
sg2305
I2947
sg2306
I2049
sg2307
I2023
sg2308
I1368
sg2309
I3312
sg2310
I2780
sg2311
I396
sg2312
I1841
sg2313
I578
sg2314
I2573
sg2315
I417
sg2316
I873
sg2317
I240
sg2318
I279
sg2319
I893
sg2320
I2758
sg2321
I2915
sg2322
I2515
sg2323
I1782
sg2324
I1661
sg2325
I605
sg2326
I913
sg2327
I2537
sg2328
I2200
sg2329
I706
sg2330
I1682
sg2331
I3050
sg2332
I2811
sg2333
I697
sg2334
I2430
sg2335
I1800
sg2336
I675
sg2337
I555
sg2338
I3298
sg2339
I1839
sg2340
I391
sg2341
I2150
sg2342
I1745
sg2343
I720
sg2344
I2681
sg2345
I3200
sg2346
I3112
sg2347
I198
sg2348
I375
sg2349
I1377
sg2350
I2412
sg2351
I2753
sg2352
I2969
sg2353
I2719
sg2354
I3296
sg2355
I1851
sg2356
I2435
sg2357
I3039
sg2358
I1234
sg2359
I387
sg2360
I1953
sg2361
I3009
sg2362
I1123
sg2363
I1488
sg2364
I328
sg2365
I1717
sg2366
I3332
sg2367
I3315
sg2368
I342
sg2369
I1157
sg2370
I2059
sg2371
I877
sg2372
I550
sg2373
I2214
sg2374
I3306
sg2375
I147
sg2376
I1759
sg2377
I2832
sg2378
I1633
sg2379
I2703
sg2380
I2362
sg2381
I1578
sg2382
I2468
sg2383
I3230
sg2384
I2051
sg2385
I1279
sg2386
I1111
sg2387
I351
sg2388
I1835
sg2389
I1753
sg2390
I1594
sg2391
I1172
sg2392
I2470
sg2393
I2925
sg2394
I2310
sg2395
I1154
sg2396
I3275
sg2397
I2263
sg2398
I572
sg2399
I1427
sg2400
I274
sg2401
I1524
sg2402
I1221
sg2403
I2439
sg2404
I2721
sg2405
I678
sg2406
I246
sg2407
I3129
sg2408
I3182
sg2409
I1737
sg2410
I2845
sg2411
I3323
sg2412
I1183
sg2413
I1252
sg2414
I829
sg2415
I2756
sg2416
I2586
sg2417
I3042
sg2418
I325
sg2419
I2806
sg2420
I761
sg2421
I1697
sg2422
I3000
sg2423
I711
sS'O'
I904
sg2424
I1696
sg2425
I2506
sg2426
I2656
sg2427
I1153
sg2428
I43
sg2429
I1808
sg2430
I3256
sg2431
I776
sg2432
I2334
sg2433
I3294
sg2434
I935
sg2435
I2199
sg2436
I1093
sg2437
I1975
sg2438
I3041
sg2439
I1681
sg2440
I392
sg2441
I2963
sg2442
I626
sg2443
I2551
sg2444
I1077
sg2445
I1040
sg2446
I2747
sg2447
I129
sg2448
I2597
sg2449
I68
sg2450
I3008
sg2451
I2799
sg2452
I588
sg2453
I2844
sg2454
I1653
sg2455
I2936
sg2456
I1655
sg2457
I854
sg2458
I2736
sg2459
I977
sg2460
I1461
sg2461
I1255
sg2462
I2324
sg2463
I2595
sg2464
I2802
sg2465
I3263
sg2466
I839
sg2467
I164
sg2468
I3150
sg2469
I1323
sg2470
I1525
sg2471
I1285
sg2472
I3142
sg2473
I613
sg2474
I1375
sg2475
I2054
sg2476
I1718
sg2477
I2589
sg2478
I1164
sg2479
I414
sg2480
I108
sg2481
I183
sg2482
I489
sg2483
I1720
sg2484
I2083
sg2485
I111
sg2486
I817
sg2487
I1917
sg2488
I1543
sg2489
I2357
sg2490
I2762
sg2491
I428
sg2492
I1762
sg2493
I964
sg2494
I792
sg2495
I2440
sg2496
I1768
sg2497
I2826
sg2498
I1360
sg2499
I190
sg2500
I1146
sg2501
I825
sg2502
I1942
sg2503
I1996
sg2504
I407
sg2505
I1912
sg2506
I3157
sg2507
I686
sg2508
I789
sg2509
I916
sg2510
I1640
sg2511
I735
sg2512
I1272
sg2513
I1756
sg2514
I1866
sg2515
I1857
sg2516
I2724
sg2517
I3012
sg2518
I921
sg2519
I1660
sg2520
I2992
sg2521
I1340
sg2522
I1628
sg2523
I1620
sg2524
I3267
sg2525
I3302
sg2526
I682
sg2527
I359
sg2528
I1169
sg2529
I2728
sg2530
I215
sg2531
I702
sg2532
I2951
sg2533
I3055
sg2534
I970
sg2535
I3357
sg2536
I3025
sg2537
I1676
sg2538
I429
sg2539
I3314
sg2540
I118
sg2541
I338
sg2542
I2940
sg2543
I1549
sg2544
I1512
sg2545
I1042
sg2546
I1994
sg2547
I3118
sg2548
I1744
sg2549
I481
sg2550
I491
sg2551
I1251
sg2552
I2821
sg2553
I285
sg2554
I2964
sg2555
I2621
sg2556
I1353
sg2557
I2709
sg2558
I1641
sg2559
I1083
sg2560
I494
sg2561
I44
sg2562
I1752
sg2563
I2240
sg2564
I1742
sg2565
I1723
sg2566
I3119
sg2567
I1995
sg2568
I1038
sg2569
I3343
sg2570
I3361
sg2571
I1626
sg2572
I487
sg2573
I3242
sg2574
I2557
sg2575
I3127
sg2576
I322
sg2577
I1072
sg2578
I3099
sg2579
I31
sS'P'
I905
sg2580
I155
sg2581
I3005
sg2582
I894
sg2583
I3071
sg2584
I1115
sg2585
I2776
sg2586
I1755
sg2587
I46
sg2588
I1557
sg2589
I2074
sg2590
I159
sg2591
I3229
sg2592
I1547
sg2593
I752
sg2594
I267
sg2595
I2668
sg2596
I2531
sg2597
I2930
sg2598
I2169
sg2599
I3202
sg2600
I1763
sg2601
I15
sg2602
I1939
sg2603
I196
sg2604
I3047
sg2605
I2660
sg2606
I1383
sg2607
I2380
sg2608
I891
sg2609
I515
sg2610
I3318
sg2611
I1933
sg2612
I1416
sg2613
I532
sg2614
I1250
sg2615
I2852
sg2616
I1045
sg2617
I2325
sg2618
I1922
sg2619
I339
sg2620
I768
sg2621
I2174
sg2622
I156
sg2623
I597
sg2624
I220
sg2625
I2815
sg2626
I3201
sg2627
I1783
sg2628
I2710
sg2629
I1460
sg2630
I624
sg2631
I2167
sg2632
I3122
sg2633
I1422
sg2634
I580
sg2635
I2394
sg2636
I553
sg2637
I3133
sg2638
I791
sg2639
I1011
sg2640
I2604
sg2641
I1055
sg2642
I134
sg2643
I1141
sg2644
I1145
sg2645
I468
sg2646
I3064
sg2647
I3069
sg2648
I972
sg2649
I2398
sg2650
I362
sg2651
I2117
sg2652
I186
sg2653
I3210
sg2654
I2395
sg2655
I1199
sg2656
I995
sg2657
I1229
sg2658
I1948
sg2659
I1388
sg2660
I3313
sg2661
I366
sg2662
I632
sg2663
I2135
sg2664
I2770
sg2665
I3126
sg2666
I1685
sg2667
I1010
sg2668
I113
sg2669
I2448
sg2670
I1105
sg2671
I91
sg2672
I1553
sg2673
I3176
sg2674
I1480
sg2675
I1504
sg2676
I1120
sg2677
I1909
sg2678
I2177
sg2679
I1008
sg2680
I1730
sg2681
I762
sg2682
I1235
sg2683
I737
sg2684
I1143
sg2685
I1705
sg2686
I1954
sg2687
I2105
sg2688
I2376
sg2689
I2816
sg2690
I1734
sg2691
I67
sg2692
I2606
sg2693
I1348
sg2694
I1538
sg2695
I95
sg2696
I432
sg2697
I3123
sg2698
I244
sg2699
I777
sg2700
I386
sg2701
I188
sg2702
I2015
sg2703
I510
sg2704
I1216
sg2705
I423
sg2706
I2727
sg2707
I1467
sg2708
I914
sg2709
I1023
sg2710
I1757
sg2711
I7
sg2712
I435
sg2713
I3078
sg2714
I948
sg2715
I1598
sg2716
I2127
sg2717
I1179
sg2718
I2639
sg2719
I3349
sg2720
I2926
sg2721
I1829
sg2722
I2354
sg2723
I3344
sg2724
I1095
sg2725
I2072
sg2726
I1468
sg2727
I1162
sg2728
I2859
sg2729
I1625
sg2730
I2613
sg2731
I1664
sg2732
I861
sg2733
I1065
sg2734
I1241
sg2735
I911
sg2736
I466
sg2737
I1304
sg2738
I2350
sg2739
I3114
sg2740
I106
sg2741
I1797
sg2742
I138
sg2743
I1290
sg2744
I1452
sg2745
I1331
sg2746
I1080
sg2747
I2343
sg2748
I2231
sg2749
I2985
sg2750
I2994
sg2751
I1337
sg2752
I2447
sg2753
I2451
sg2754
I3290
sg2755
I2683
sg2756
I1583
sg2757
I537
sg2758
I2416
sg2759
I716
sg2760
I1400
sg2761
I2764
sg2762
I3169
sg2763
I1228
sg2764
I2912
sg2765
I1001
sg2766
I3245
sg2767
I1521
sg2768
I1282
sg2769
I2975
sg2770
I2800
sg2771
I2828
sg2772
I991
sg2773
I961
sg2774
I3156
sg2775
I1907
sg2776
I524
sg2777
I2818
sg2778
I3166
sg2779
I1019
sg2780
I2883
sg2781
I1356
sg2782
I2686
sg2783
I2642
sg2784
I602
sg2785
I3
sg2786
I1818
sg2787
I2706
sg2788
I2087
sg2789
I2479
sg2790
I1647
sg2791
I1919
sg2792
I1303
sg2793
I2957
sg2794
I929
sg2795
I2137
sg2796
I1398
sg2797
I788
sg2798
I2057
sg2799
I441
sg2800
I864
sg2801
I1669
sg2802
I230
sg2803
I1750
sg2804
I3085
sg2805
I1404
sg2806
I1522
sg2807
I1043
sg2808
I1186
sg2809
I1562
sg2810
I2646
sg2811
I2605
sg2812
I623
sg2813
I1138
sg2814
I1927
sg2815
I306
sg2816
I1698
sg2817
I289
sg2818
I1028
sg2819
I376
sg2820
I41
sg2821
I1540
sg2822
I2401
sg2823
I266
sg2824
I6
sg2825
I3140
sg2826
I3358
sS"'"
I563
sg2827
I3067
sg2828
I1382
sg2829
I1551
sg2830
I3388
sg2831
I2141
sg2832
I1814
sg2833
I2173
sg2834
I1558
sg2835
I2428
sg2836
I2319
sg2837
I1430
sg2838
I327
sg2839
I2295
sg2840
I2986
sg2841
I1025
sg2842
I3152
sg2843
I1726
sg2844
I275
sg2845
I1576
sg2846
I3233
sg2847
I888
sg2848
I2712
sg2849
I3284
sg2850
I1419
sg2851
I326
sg2852
I2478
sg2853
I987
sg2854
I2460
sg2855
I2100
sg2856
I229
sg2857
I1877
sg2858
I650
sg2859
I3076
sg2860
I166
sg2861
I2041
sg2862
I100
sg2863
I2025
sg2864
I664
sg2865
I3046
sg2866
I2841
sg2867
I1182
sg2868
I2162
sg2869
I1448
sg2870
I2257
sg2871
I458
sg2872
I2744
sg2873
I1776
sg2874
I1944
sg2875
I3219
sg2876
I589
sg2877
I3057
sg2878
I2524
sg2879
I488
sg2880
I1905
sg2881
I471
sg2882
I1847
sg2883
I304
sg2884
I536
sg2885
I1897
sg2886
I352
sg2887
I3377
sg2888
I486
sg2889
I2168
sg2890
I956
sg2891
I1107
sg2892
I2817
sg2893
I1256
sg2894
I1532
sg2895
I60
sg2896
I2658
sg2897
I2298
sg2898
I2503
sg2899
I2314
sg2900
I1305
sg2901
I2457
sg2902
I1339
sg2903
I1311
sg2904
I122
sg2905
I3217
sg2906
I2959
sg2907
I3104
sg2908
I2272
sg2909
I1559
sg2910
I923
sg2911
I3006
sg2912
I1498
sg2913
I283
sg2914
I885
sg2915
I2602
sg2916
I1373
sg2917
I925
sg2918
I2491
sg2919
I2403
sg2920
I445
sg2921
I130
sg2922
I2337
sg2923
I3086
sg2924
I1359
sg2925
I3371
sg2926
I2352
sg2927
I2330
sg2928
I1670
sg2929
I1470
sg2930
I3303
sg2931
I1921
sg2932
I811
sg2933
I1548
sg2934
I629
sg2935
I86
sg2936
I160
sg2937
I1067
sg2938
I2976
sg2939
I1838
sg2940
I2653
sg2941
I1036
sg2942
I2267
sg2943
I3020
sg2944
I2690
sg2945
I2501
sg2946
I298
sg2947
I443
sg2948
I2810
sg2949
I1029
sg2950
I2450
sg2951
I2782
sg2952
I1462
sg2953
I2907
sg2954
I1552
sg2955
I2179
sg2956
I2608
sg2957
I1409
sg2958
I781
sg2959
I551
sg2960
I2424
sg2961
I1840
sg2962
I615
sg2963
I353
sg2964
I2765
sg2965
I2885
sg2966
I350
sg2967
I2211
sg2968
I3341
sg2969
I2359
sg2970
I2196
sg2971
I3339
sg2972
I712
sg2973
I565
sg2974
I1630
sg2975
I2122
sg2976
I2577
sg2977
I3328
sg2978
I1987
sg2979
I1414
sg2980
I2867
sg2981
I201
sg2982
I2792
sg2983
I371
sg2984
I2075
sg2985
I1390
sg2986
I415
sg2987
I1810
sg2988
I717
sg2989
I496
sg2990
I206
sg2991
I2913
sg2992
I2795
sg2993
I1119
sg2994
I1892
sg2995
I2028
sg2996
I2741
sg2997
I1864
sg2998
I2069
sg2999
I647
sg3000
I2277
sg3001
I2133
sg3002
I2044
sg3003
I17
sg3004
I2020
sg3005
I635
sg3006
I431
sg3007
I2405
sg3008
I1642
sg3009
I2854
sg3010
I2317
sg3011
I2853
sg3012
I1354
sg3013
I1913
sg3014
I715
sg3015
I2870
sg3016
I1017
sg3017
I1056
sg3018
I2299
sg3019
I2824
sg3020
I1561
sg3021
I1364
sg3022
I1754
sg3023
I1688
sg3024
I3301
sg3025
I2814
sg3026
I1979
sg3027
I886
sg3028
I1916
sg3029
I2987
sg3030
I506
sg3031
I814
sg3032
I419
sg3033
I2444
sg3034
I3043
sg3035
I499
sg3036
I1046
sg3037
I2176
sg3038
I1190
sS'C'
I1658
sg3039
I996
sg3040
I2191
sg3041
I879
sg3042
I1772
sg3043
I3021
sg3044
I2539
sg3045
I594
sg3046
I2142
sg3047
I3074
sg3048
I1715
sg3049
I2364
sg3050
I380
sg3051
I614
sg3052
I1564
sg3053
I2692
sg3054
I989
sg3055
I3310
sg3056
I1420
sg3057
I2399
sg3058
I2014
sg3059
I1226
sg3060
I710
sg3061
I2207
sS'S'
I175
sg3062
I1121
sg3063
I2455
sg3064
I1232
sg3065
I1637
sg3066
I1635
sg3067
I2260
sg3068
I1945
sg3069
I592
sg3070
I2974
sg3071
I1092
sg3072
I1666
sg3073
I2241
sg3074
I2371
sg3075
I1529
sg3076
I610
sg3077
I2175
sg3078
I112
sg3079
I3060
sg3080
I204
sg3081
I2919
sg3082
I526
sg3083
I1727
sg3084
I2774
sg3085
I1437
sg3086
I985
sg3087
I61
sg3088
I2671
sg3089
I749
sg3090
I335
sg3091
I258
sg3092
I795
sg3093
I55
sg3094
I1889
sg3095
I2111
sg3096
I2400
sg3097
I2771
sg3098
I503
sg3099
I783
sg3100
I1648
sg3101
I3327
sg3102
I1544
sg3103
I3109
sg3104
I1848
sg3105
I1970
sg3106
I1789
sg3107
I2151
sg3108
I1854
sg3109
I2306
sg3110
I377
sg3111
I1210
sg3112
I1595
sg3113
I732
sg3114
I2631
sg3115
I3348
sg3116
I658
sg3117
I1262
sg3118
I2521
sg3119
I295
sg3120
I1665
sg3121
I2560
sg3122
I3280
sg3123
I185
sg3124
I3264
sg3125
I1
sg3126
I653
sg3127
I1497
sg3128
I3226
sg3129
I364
sg3130
I998
sg3131
I49
sg3132
I2157
sg3133
I2215
sg3134
I2555
sg3135
I2089
sg3136
I1884
sg3137
I2953
sg3138
I2143
sg3139
I1643
sg3140
I3297
sg3141
I235
sg3142
I2982
sg3143
I2195
sg3144
I1716
sg3145
I852
sg3146
I1867
sg3147
I648
sg3148
I2213
sg3149
I2565
sg3150
I2178
sg3151
I245
sg3152
I2033
sg3153
I2194
sg3154
I3193
sg3155
I1317
sg3156
I2578
sg3157
I1570
sg3158
I104
sg3159
I1326
sg3160
I402
sg3161
I1155
sg3162
I1827
sg3163
I1358
sg3164
I1122
sg3165
I719
sg3166
I395
sg3167
I1476
sg3168
I707
sg3169
I3130
sg3170
I2061
sg3171
I1896
sg3172
I2382
sg3173
I979
sg3174
I745
sg3175
I2527
sg3176
I37
sg3177
I2575
sg3178
I870
sg3179
I2558
sg3180
I1369
sg3181
I1674
sg3182
I3113
sg3183
I2109
sg3184
I478
sg3185
I3262
sg3186
I1608
sg3187
I3331
sg3188
I2689
sg3189
I1952
sg3190
I1761
sg3191
I2625
sg3192
I355
sg3193
I627
sg3194
I161
sg3195
I3390
sg3196
I1277
sg3197
I1735
sg3198
I2114
sg3199
I315
sg3200
I1567
sg3201
I2807
sg3202
I2499
sg3203
I655
sg3204
I1381
sg3205
I3022
sg3206
I182
sg3207
I1784
sg3208
I1831
sg3209
I2879
sg3210
I988
sg3211
I1068
sg3212
I659
sg3213
I2239
sg3214
I2353
sg3215
I2704
sg3216
I3248
sg3217
I369
sg3218
I259
sg3219
I645
sg3220
I1050
sg3221
I2312
sg3222
I1318
sg3223
I3044
sg3224
I1347
sg3225
I2971
sg3226
I628
sg3227
I2878
sg3228
I764
sg3229
I2938
sg3230
I1693
sg3231
I2999
sg3232
I2482
sg3233
I1616
sg3234
I312
sg3235
I539
sg3236
I3163
sg3237
I986
sg3238
I1355
sg3239
I2592
sg3240
I1955
sg3241
I2432
sg3242
I1187
sg3243
I94
sg3244
I372
sg3245
I609
sg3246
I2471
sg3247
I2414
sg3248
I218
sg3249
I2129
sg3250
I482
sg3251
I2147
sg3252
I1906
sg3253
I1585
sg3254
I1436
sg3255
I2654
sg3256
I2342
sg3257
I2108
sg3258
I2693
sg3259
I1357
sg3260
I807
sg3261
I1321
sg3262
I1687
sg3263
I830
sg3264
I272
sg3265
I899
sg3266
I892
sg3267
I590
sg3268
I1746
sg3269
I363
sg3270
I1638
sg3271
I2419
sg3272
I2534
sg3273
I318
sg3274
I502
sg3275
I896
sg3276
I772
sg3277
I171
sg3278
I960
sg3279
I3165
sg3280
I4
sg3281
I1345
sg3282
I1709
sg3283
I139
sg3284
I882
sg3285
I1785
sg3286
I2080
sg3287
I607
sg3288
I2265
sg3289
I1967
sg3290
I1244
sg3291
I821
sg3292
I2369
sg3293
I1659
sg3294
I3366
sg3295
I2563
sg3296
I2483
sg3297
I1394
sg3298
I2598
sg3299
I757
sg3300
I2895
sg3301
I3208
sg3302
I1024
sg3303
I3061
sg3304
I2384
sg3305
I1333
sg3306
I3180
sg3307
I3101
sg3308
I670
sg3309
I194
sg3310
I2172
sg3311
I1799
sg3312
I2245
sg3313
I2301
sg3314
I1992
sg3315
I3387
sg3316
I251
sg3317
I2138
sg3318
I2659
sg3319
I2643
sg3320
I1231
sg3321
I401
sg3322
I1573
sg3323
I2723
sg3324
I943
sg3325
I2415
sg3326
I2375
sg3327
I2617
sg3328
I850
sg3329
I278
sg3330
I901
sg3331
I406
sg3332
I2725
sg3333
I2685
sg3334
I1248
sg3335
I1569
sg3336
I631
sg3337
I2699
sg3338
I2788
sg3339
I3218
sg3340
I2227
sg3341
I3281
sg3342
I1542
sg3343
I2391
sg3344
I543
sg3345
I2650
sg3346
I1714
sg3347
I413
sg3348
I1710
sg3349
I311
sg3350
I622
sg3351
I422
sg3352
I529
sg3353
I3172
sg3354
I2360
sg3355
I2386
sg3356
I1066
sg3357
I1150
sg3358
I1645
sg3359
I2798
sg3360
I1853
sg3361
I1328
sg3362
I1492
sg3363
I2958
sg3364
I1597
sg3365
I1656
sg3366
I1287
sg3367
I2284
sg3368
I3096
sS'U'
I174
sg3369
I1266
sg3370
I902
sg3371
I3317
sg3372
I2047
sg3373
I1507
sg3374
I1852
sg3375
I1299
sg3376
I2978
sg3377
I2220
sg3378
I1027
sg3379
I14
sg3380
I2778
ssS'_reverse_mapping'
p3383
(lp3384
g12
ag3125
ag675
ag2785
ag3280
ag1511
ag2824
ag2711
ag2002
ag687
ag161
ag1579
ag1709
ag176
ag3379
ag2601
ag1009
ag3003
ag1052
ag1725
ag491
ag33
ag1772
ag189
ag1965
ag1986
ag1019
ag888
ag1882
ag1590
ag1047
ag2579
ag222
ag1577
ag948
ag552
ag1815
ag3176
ag326
ag1666
ag2035
ag2820
ag1561
ag2428
ag2561
ag1411
ag2587
ag905
ag1451
ag3131
ag130
ag1701
ag854
ag1084
ag2137
ag3093
ag481
ag907
ag836
ag1271
ag2895
ag3087
ag1311
ag567
ag826
ag1290
ag1831
ag2691
ag2449
ag149
ag1580
ag661
ag1422
ag881
ag1576
ag1266
ag902
ag1186
ag1643
ag606
ag978
ag805
ag940
ag1845
ag1063
ag1805
ag2935
ag1342
ag764
ag205
ag615
ag2671
ag2130
ag1903
ag3243
ag2695
ag163
ag1633
ag117
ag499
ag2862
ag486
ag1550
ag2281
ag3158
ag2040
ag2740
ag1209
ag2480
ag2168
ag964
ag2485
ag3078
ag2668
ag1235
ag2224
ag1567
ag599
ag2540
ag1365
ag1744
ag1482
ag2904
ag113
ag255
ag656
ag672
ag2158
ag2118
ag2447
ag2921
ag1572
ag762
ag1645
ag2642
ag1039
ag1905
ag2120
ag2742
ag3283
ag837
ag1615
ag48
ag804
ag1110
ag366
ag1564
ag2375
aS'v'
ag513
ag460
ag657
ag885
ag1989
ag562
ag2580
ag2622
ag1870
ag492
ag2590
ag2936
ag3194
ag1889
ag781
ag2467
ag1649
ag2860
ag835
ag1586
ag623
ag1011
ag3277
ag2206
ag1470
aS'U'
aS'S'
ag286
ag2159
ag648
ag1165
ag263
ag726
ag3206
ag2481
ag2100
ag3123
ag2652
ag315
ag2701
ag349
ag2499
ag2239
ag811
ag1093
ag3309
ag229
ag2603
ag165
ag2347
ag997
ag2114
ag2981
ag458
ag2186
ag3080
ag720
ag2990
ag2177
ag1971
ag1854
ag223
ag1021
ag90
ag579
ag2098
ag2530
ag1430
ag1435
ag3248
ag1336
ag2624
ag1242
aS's'
ag448
ag1602
ag763
ag364
ag2117
ag482
ag2856
ag2802
ag2267
ag1056
ag634
ag1263
ag3141
ag1015
ag975
ag1631
ag2199
ag2317
ag1828
ag1840
ag1259
ag2698
ag3151
ag2406
ag332
ag1515
ag1221
ag1183
ag3316
ag1917
ag749
ag1581
ag1053
ag1622
ag1268
ag3091
ag3218
aS'a'
ag1737
ag717
ag1544
ag1505
aS'A'
ag2823
ag2594
ag534
ag84
ag2099
ag2235
ag3264
ag1855
ag2400
ag2844
ag2027
ag1153
ag3329
ag2318
ag1723
ag718
ag267
ag2913
ag196
ag2553
ag1081
ag324
ag2094
ag2817
ag1123
ag2176
ag1754
ag333
ag722
ag3119
ag2107
ag1402
ag2946
ag1243
ag1869
ag655
ag912
ag1085
ag2883
ag1211
ag2815
ag1697
ag1454
ag1294
ag2050
ag3349
ag3234
ag2171
ag2251
ag3199
ag1331
ag871
ag3273
ag1305
ag1857
ag1200
ag2576
ag727
ag1599
ag2418
ag2851
ag2838
ag2364
ag80
ag2221
ag1474
ag1472
ag1489
ag1414
ag3090
ag1119
ag2089
ag2541
ag2619
ag1199
ag1379
ag2368
ag2010
ag1135
ag98
ag1301
ag967
ag545
ag1352
ag2966
ag2387
ag2886
ag2963
ag2166
ag3192
ag1136
ag937
aS'I'
ag2527
ag1681
ag1589
ag2650
ag3269
ag3129
ag2249
ag2661
ag1041
ag1921
ag3217
ag1012
ag2983
ag3244
ag1076
ag2004
ag2348
ag2819
ag3110
ag1188
ag1054
ag3050
ag523
ag1048
ag1255
aS'-'
ag1680
ag2700
ag2359
ag1925
ag2049
ag686
ag2340
ag2440
ag511
ag249
ag3166
ag2311
ag430
ag21
ag608
ag629
ag3321
ag3160
ag1787
ag1574
aS'2'
ag3331
ag2504
ag1380
ag1636
ag2061
ag1995
ag806
ag3347
ag2479
ag2986
ag1403
ag2315
ag271
ag3032
ag2095
ag82
ag3351
ag2705
ag1833
ag1494
ag2292
ag994
ag2491
ag2538
ag371
ag3006
ag2696
ag1962
ag1045
ag2712
ag654
ag291
ag1113
ag610
ag228
ag2799
ag642
ag2947
ag200
ag2920
ag2103
ag2299
ag1102
ag840
ag724
ag197
ag378
aS'\xe2'
ag382
ag355
ag1880
ag638
ag2871
ag231
ag777
ag380
ag359
ag2188
ag376
ag875
ag2736
ag750
ag2645
ag1055
ag1207
ag2881
aS'\xc2'
ag1635
ag464
ag834
ag307
ag1895
ag3184
ag633
ag895
ag2549
ag3250
ag684
ag1462
ag471
ag2888
ag2572
ag2879
ag2482
ag313
ag2550
ag462
ag825
ag2560
ag1778
ag2989
ag1182
ag768
ag3035
ag1237
ag800
ag3274
ag3098
ag2047
ag1092
ag3030
ag1746
ag1611
ag272
ag2703
ag971
ag1139
ag1068
ag1813
ag2609
ag120
ag2155
ag524
ag1719
ag1141
ag1698
ag354
ag2014
ag2776
ag2075
ag3082
ag1101
ag2081
ag3352
ag678
ag2055
ag2613
ag1911
ag2250
ag1252
ag2884
ag2757
ag622
ag3235
ag456
ag1478
ag670
ag3344
ag2236
ag650
ag423
ag1653
ag1918
ag1752
ag2372
ag2959
ag182
ag2636
ag1526
ag2337
ag883
ag429
ag1662
ag183
ag1492
ag171
ag103
aS"'"
ag421
ag2973
ag144
ag951
ag224
ag1131
ag2272
ag1848
ag2398
ag1819
ag859
ag463
ag167
ag51
ag2313
ag1693
ag2634
ag918
ag230
ag2261
ag2093
ag1201
ag882
ag925
ag2452
ag2876
ag3267
ag973
ag3069
ag521
ag3045
aS'4'
ag808
ag2623
ag1468
ag1133
ag923
ag953
ag2784
ag1191
ag609
ag2325
ag725
ag3287
ag593
ag3245
ag3076
ag1241
ag703
ag2473
ag3051
ag2962
ag993
ag1067
aS'7'
ag139
ag279
ag1560
ag3350
ag2812
ag2630
ag857
ag2442
ag3193
ag3226
ag2934
ag828
ag3336
ag2662
ag1785
ag287
ag3005
ag1968
ag2070
ag208
ag1179
ag1616
ag175
ag455
ag547
ag1078
ag3219
ag617
ag2999
ag3147
ag497
ag2858
ag1816
ag373
ag3126
ag1736
ag3203
ag788
ag1496
ag3116
ag3212
ag1910
ag1928
ag1907
ag691
ag2864
ag2150
ag1302
ag792
ag817
ag1455
ag3308
ag1028
ag1868
ag278
ag1559
ag2336
ag651
ag2142
ag2405
ag1696
ag215
ag1541
ag2526
ag1713
ag79
ag220
ag2507
ag1556
ag1729
ag1016
ag1783
ag1361
ag1145
ag1304
ag1900
ag2178
ag1094
ag2333
ag1751
ag57
ag1535
ag662
ag2531
ag1446
ag1878
ag873
ag2329
ag3168
ag1514
ag767
ag3060
ag2423
ag2972
ag1321
ag2247
ag3014
ag2759
ag2988
ag1147
ag3165
ag2343
ag1780
ag1996
ag592
ag1545
ag54
ag1964
ag719
ag981
ag1678
ag728
ag1901
ag3113
ag748
ag348
ag2511
ag1459
ag2683
ag493
ag1480
ag1595
ag1849
ag600
ag1977
ag1664
ag3174
ag708
ag1769
ag955
ag3089
ag909
ag2068
ag2593
ag665
ag243
ag1274
ag1824
ag3299
ag135
ag1789
ag1020
ag2420
ag2681
ag689
ag3228
ag246
ag2071
aS't'
ag2620
ag1120
ag696
ag283
ag3276
ag23
ag564
ag1756
ag2431
ag2699
ag798
ag518
ag1368
ag2958
ag1206
ag3099
ag125
ag1707
ag1018
ag1860
ag2797
ag2508
ag1077
ag2638
ag2494
ag1286
ag468
ag3092
ag1245
ag863
ag996
ag831
ag119
ag1537
ag414
ag807
ag1142
ag761
ag528
ag3260
ag238
ag814
ag1389
ag2932
ag2062
ag1587
ag3031
ag375
ag636
ag2486
ag1795
ag1517
ag95
ag3291
ag847
ag2285
ag1443
ag2501
ag810
ag1657
ag1080
ag2414
ag3263
ag247
ag330
ag1600
ag2044
ag2109
ag369
ag1951
ag1825
ag2466
ag1111
ag1272
ag408
ag24
ag147
ag32
ag2079
ag1010
ag2115
ag2021
ag3328
ag884
ag3145
ag2286
ag2457
ag692
ag1594
ag846
ag504
ag1630
ag2164
ag2732
ag1634
ag658
ag2800
ag2133
ag158
ag1023
ag529
ag641
ag3178
ag372
ag630
ag2316
ag269
ag919
ag1318
ag2371
ag336
ag3041
ag1961
ag1401
ag3284
ag1993
ag128
ag2914
ag3027
ag729
ag2847
ag1202
ag2074
ag2608
ag3266
ag2319
ag2582
ag1374
ag3275
ag2278
ag1175
ag3265
ag2132
ag3330
ag3370
aS'G'
aS'O'
aS'P'
ag2036
ag419
ag339
ag1398
ag2128
ag2735
ag1954
ag2326
ag2708
ag2260
ag2509
ag1050
ag1345
ag1632
ag1312
ag2518
ag1121
ag2910
ag67
ag2917
ag52
ag1640
ag742
ag2794
ag976
ag2233
ag1597
ag159
ag2274
ag2434
ag1339
ag2072
ag306
ag1002
ag1017
ag1236
ag1328
ag3324
ag2271
ag1127
ag954
ag644
ag2714
ag42
aS'1'
ag1958
ag1957
ag1344
ag437
ag1608
ag2890
ag652
ag444
ag2234
ag3278
ag2773
ag207
ag1447
ag2493
ag53
ag823
ag1427
ag152
ag2026
ag2534
ag2065
ag2648
ag498
ag68
ag199
ag1034
ag2459
ag1741
ag3173
ag683
ag747
ag1520
ag2255
ag338
ag3086
ag3237
ag2853
ag3210
ag3054
ag2258
ag2772
ag1412
ag85
ag396
ag2656
ag3039
ag1931
ag3130
ag554
ag733
ag2765
ag1391
ag1448
ag1353
ag1226
ag1549
ag517
ag2679
ag1378
ag2667
ag2639
ag2016
ag1257
ag1606
ag709
ag1173
ag3016
ag2147
ag2779
ag397
ag393
ag63
ag2709
ag3302
ag2841
ag1568
ag3378
ag2818
ag2949
ag1484
ag239
ag673
ag939
ag1927
ag865
ag2941
ag206
ag2568
ag668
ag2445
ag1461
ag2545
ag2807
ag357
ag2616
ag3036
ag195
ag45
ag1031
ag3220
ag160
ag1842
ag1763
ag1196
ag2641
ag3017
ag1540
ag1393
ag1530
ag1464
ag1198
ag212
ag943
ag1742
ag2733
ag3356
ag2937
ag3211
ag1797
ag1960
ag1573
ag2577
ag1269
ag345
ag467
ag1215
ag2444
ag2017
ag550
ag2746
ag409
ag2022
ag2559
ag1604
ag1214
ag1250
ag1230
ag1308
ag1902
ag1363
ag1024
ag3071
ag2436
ag1005
ag2724
ag1399
ag1417
ag277
ag1126
ag950
ag910
ag59
ag1171
ag386
ag2670
ag274
ag2891
ag1554
ag2181
ag1501
ag2386
ag616
ag1152
ag738
ag2584
ag248
ag934
ag1043
ag2993
ag2676
ag3062
ag3164
ag2362
ag321
ag842
ag869
ag1425
ag34
ag693
ag1488
ag420
ag1661
ag2009
ag2208
ag578
ag669
ag65
ag2813
ag2066
ag1670
ag2643
ag1519
ag2684
ag134
ag2644
ag2500
ag2001
ag1333
ag1625
ag3357
ag647
ag879
ag2427
ag2395
ag3161
ag1189
ag2369
ag1970
ag132
ag938
ag1373
ag2727
ag1161
ag2478
ag957
ag2028
ag585
ag580
ag2528
ag401
ag1934
ag2391
ag605
ag1712
ag1528
ag403
ag1757
ag2060
ag2717
ag711
ag1329
ag2867
ag2412
ag1291
ag1008
ag2808
ag3242
ag2146
ag1992
ag3038
ag659
ag2020
ag582
ag388
ag1069
ag2007
ag930
ag1267
ag2655
ag1936
ag1807
ag1228
ag1444
ag1439
ag2082
ag860
ag2174
ag1062
ag415
ag3111
ag679
ag337
ag383
ag180
ag2201
ag2704
ag894
ag341
ag1684
ag753
ag2402
ag2218
ag741
ag477
ag362
ag3059
ag1814
ag2763
ag2657
ag453
ag3320
ag3064
ag1981
ag2358
ag2682
ag1287
ag20
ag1473
ag1025
ag1872
ag2734
ag1822
ag751
ag3290
ag334
ag1937
ag1733
ag3334
ag1124
ag2614
ag2551
ag2413
ag583
ag542
ag2461
ag2893
ag1032
ag106
ag576
ag1279
ag1994
ag3117
ag258
ag1150
ag544
ag3369
ag1281
ag340
ag2034
ag449
ag956
ag2512
ag1679
ag1158
ag1761
ag911
ag3196
ag2087
ag2385
ag710
ag2033
ag2768
ag1220
ag571
ag2471
ag344
ag3366
ag794
ag1547
ag2743
ag184
ag1687
ag1786
ag36
ag1875
ag290
ag434
ag2085
ag3375
ag142
ag64
ag1479
ag2792
ag2737
ag2900
ag2144
ag695
ag2219
ag1297
ag1275
ag2903
ag1309
ag1112
ag323
ag1605
ag442
ag3155
ag3222
ag1325
ag262
ag3261
ag29
ag2469
ag2195
ag1406
ag3159
ag2197
ag3361
ag1867
ag1099
ag2745
ag702
ag3305
ag213
ag285
ag41
ag2751
ag1975
ag2902
ag2521
ag232
ag459
ag1642
ag872
ag3281
ag1779
ag3224
ag2693
ag2134
ag381
ag2054
ag1675
ag2556
ag3012
ag3238
ag2781
ag3259
ag3163
ag2924
ag2498
ag1706
ag1841
ag365
ag3021
ag933
ag1629
ag601
ag2308
ag3180
ag1529
ag1859
ag1534
ag2916
ag969
ag2474
ag31
ag2349
ag746
ag181
ag1089
ag3204
ag2828
ag2606
ag1154
ag2243
ag218
ag447
ag2659
ag2196
ag2985
aS'K'
ag548
ag1999
ag3297
ag1233
ag1208
ag1542
ag2796
ag136
ag2760
ag1106
ag1536
ag1351
ag2805
ag1426
ag739
ag2163
ag2037
ag2957
ag2213
ag2023
ag2283
ag1843
ag2979
ag877
ag2612
ag2265
ag301
ag2850
ag3056
ag1195
ag2633
ag2290
ag1924
ag1205
ag1114
ag2399
ag489
ag83
ag2837
ag1040
ag1677
ag1326
ag752
ag509
ag3254
ag3085
ag452
ag186
ag627
ag1174
ag478
ag1386
ag701
ag631
ag527
ag303
ag2869
ag666
ag244
ag1802
ag2744
ag275
ag43
ag2162
ag1614
ag2238
ag779
ag1213
ag2629
ag2460
ag2952
ag543
ag1846
ag1613
ag350
ag2707
ag2726
ag325
ag2929
ag1027
ag1755
ag2122
ag1546
ag640
ag3167
ag1095
ag221
ag146
ag2674
ag209
ag1394
ag1270
ag2058
ag785
ag1648
ag1445
ag2363
ag1898
ag1909
ag328
ag3362
ag2046
ag73
ag1735
ag1453
ag3127
ag2912
ag603
ag484
ag268
ag1421
ag2106
ag2675
ag611
ag844
ag3373
ag111
ag619
ag987
ag852
ag2544
ag1170
ag1071
ag1338
ag1197
ag1691
ag1926
ag1500
ag2053
ag2767
ag2806
ag1248
ag2401
ag2470
ag305
ag2203
ag352
ag3075
ag318
ag2091
ag2894
ag830
ag2175
ag2207
ag1943
ag715
ag2694
ag1674
ag2821
ag972
ag3342
ag2488
ag3102
ag250
ag694
ag2592
ag2933
ag2543
ag1620
ag2829
ag2954
ag2672
ag443
ag681
ag1212
ag2588
ag2834
ag2909
ag320
ag3020
ag2809
ag1107
ag3052
ag1899
ag107
ag3200
ag932
ag3335
ag3157
ag1001
ag1310
ag3322
ag841
ag1306
ag2845
ag2011
ag2381
ag507
ag2063
ag1883
ag1913
ag2756
ag1885
ag3253
ag2056
ag1722
ag343
ag490
aS'X'
ag1764
ag1850
ag2231
ag2390
ag3112
ag1090
ag3364
ag2715
ag1565
ag2257
ag2104
ag1026
ag1966
ag1320
ag858
ag1969
ag1891
ag3186
ag990
ag1349
ag436
ag1137
ag2185
ag2069
ag819
ag3233
ag931
ag39
ag1801
ag2523
ag1820
ag96
ag2270
ag983
ag2729
ag2571
ag331
ag2522
ag441
ag2974
ag2240
ag1457
ag2378
ag2264
ag3066
ag284
ag3065
ag3270
ag428
ag2510
ag2558
ag3008
ag3139
ag469
ag3358
ag198
ag2790
ag3100
ag2123
ag264
ag104
ag1238
ag2454
ag426
ag2456
ag3365
aS'D'
aS'C'
ag3293
ag2519
ag2324
ag1162
ag535
ag2731
ag3120
ag3072
ag685
ag1033
ag2801
ag2928
ag1058
ag1382
ag356
ag3181
ag874
ag2537
ag127
ag843
ag1892
ag731
ag2439
ag2330
ag2269
ag1639
ag2666
ag353
ag3262
ag3023
ag1726
ag347
ag1959
ag1037
ag3230
ag510
ag2030
ag2424
ag2421
ag2816
ag2129
ag1652
ag1791
ag671
ag2222
ag664
ag2685
ag1790
ag1623
ag536
ag3282
ag3348
ag1856
ag2076
ag157
ag3346
ag3048
ag3144
ag2365
ag2476
ag1395
ag2483
ag1487
ag1388
ag2565
ag1705
ag281
ag2843
ag3083
ag92
ag566
ag2680
ag2143
ag253
ag2038
ag2690
ag3197
ag2189
ag2409
ag2101
ag587
ag1300
ag1410
ag2564
ag194
ag2548
ag2342
ag3268
ag387
ag2156
ag1731
ag2803
ag1584
ag2562
ag2389
ag3022
ag2586
ag2513
ag2710
ag432
ag2376
ag734
ag3190
ag2492
ag2600
ag2241
ag626
ag25
ag483
ag2496
ag1495
ag1262
ag1829
ag3042
ag2153
ag716
ag1518
ag2873
ag793
ag102
ag960
ag1323
ag265
ag2323
ag2627
ag3207
ag3285
ag389
ag1144
ag1950
ag3106
ag1738
ag2151
aS'8'
ag342
ag1449
ag203
ag211
ag2741
ag1348
ag3311
ag2335
ag1156
ag1355
ag947
ag660
ag1933
ag1939
ag1276
ag2429
ag1888
ag2987
ag22
ag824
ag892
ag2832
ag257
ag914
ag2165
ag2786
ag407
ag1689
ag889
ag1108
ag273
ag148
ag2138
ag1861
ag3162
ag140
ag2721
ag121
ag3208
ag1811
ag2303
ag1596
ag2388
ag581
ag1218
ag2939
ag2339
ag2961
ag2312
ag2126
ag1164
ag1343
ag1588
ag2170
ag2882
ag3104
ag151
ag1832
ag2355
ag3374
ag3360
ag3108
ag1877
ag520
ag2515
ag123
ag1987
ag1942
ag1130
ag1956
ag688
ag2997
ag944
ag2514
ag3146
ag1160
ag252
ag1695
ag898
ag191
ag1532
ag70
ag2192
ag613
ag2857
ag1644
ag1376
ag1784
ag367
ag2149
ag2039
ag3136
ag1914
ag522
ag2246
ag1385
ag3094
ag1060
ag1938
ag2994
ag674
ag941
ag961
ag3171
ag2885
ag849
ag317
ag713
ag1672
ag311
ag2182
ag690
ag2880
ag3252
ag2775
ag58
ag2677
ag848
ag1476
ag2505
ag3013
ag908
ag900
ag3028
ag2487
ag1140
ag2791
ag2194
ag2931
ag2618
ag1711
ag754
ag809
ag1415
ag2814
ag475
ag1886
ag1132
ag573
ag1413
ag2611
ag1456
aS'5'
ag166
ag2297
ag2226
ag2602
ag1440
ag744
ag2502
ag556
ag2874
ag3068
ag1656
ag1771
ag2658
ag1748
ag2006
ag1432
ag3189
ag2360
ag2686
ag3240
ag294
ag1118
ag1404
ag27
ag1231
ag775
ag293
ag1423
ag1483
ag94
ag245
ag3289
ag861
ag1582
ag3105
ag1340
ag1879
ag1601
ag820
ag2437
ag1852
ag995
ag131
ag3026
ag540
ag404
ag736
aS'3'
ag1070
ag1817
ag316
ag2978
ag1991
ag1436
ag906
ag1760
ag3314
ag480
ag2546
ag2567
ag2503
ag557
ag500
ag676
ag985
ag1555
ag1003
ag1827
ag1916
ag2198
ag1743
ag607
ag1324
ag473
ag1904
ag563
ag1658
ag391
ag3058
ag2702
ag474
ag1460
ag61
ag979
ag3004
ag1583
ag1029
ag2307
ag1920
ag2863
ag1782
ag143
ag2995
ag1654
ag1227
ag358
ag1375
ag3152
ag363
ag776
ag2187
ag1548
ag457
ag594
ag74
ag2861
ag778
ag1096
ag3002
ag405
ag137
ag3372
ag928
ag2306
ag632
ag2384
ag1061
ag1557
ag2475
ag1409
ag1128
ag2798
ag2193
ag2370
ag2232
ag3170
ag639
ag1216
ag988
ag1229
ag2042
ag813
ag1929
ag2998
ag2296
ag596
ag2725
ag122
ag2589
ag2984
ag412
ag1038
ag99
ag19
ag3286
ag1862
ag1416
ag2484
ag801
ag1887
ag2291
ag2788
ag812
ag3135
ag1945
ag1830
ag1240
ag1163
ag2031
ag1088
ag2273
ag2254
ag936
ag1452
ag2855
ag1874
ag1637
ag1700
ag549
ag2687
ag1258
ag1538
ag3257
ag3183
ag962
ag3095
ag100
ag982
ag3198
ag47
ag2245
ag2651
ag2237
ag2080
ag400
ag1429
ag2975
ag424
ag2083
ag1539
ag1177
ag2716
ag1922
ag3249
ag216
ag1668
ag1941
ag3001
ag532
ag2663
ag1149
ag2795
ag3317
ag1873
ag78
ag2831
ag3046
ag3138
ag1776
ag2003
ag1360
ag3251
ag296
ag1821
ag2341
ag3107
ag539
ag1836
ag2160
ag417
ag891
ag3132
ag1192
ag2223
ag1256
ag1502
ag2868
ag288
ag1346
ag2110
ag2169
ag2631
ag2889
ag2598
ag553
ag1166
ag3310
ag2833
ag2621
ag3077
ag3037
ag2678
ag3150
ag2955
ag2200
ag1441
ag760
ag1285
ag1307
ag496
ag177
ag164
ag1261
ag1940
ag1659
ag3040
ag2145
ag1178
ag3153
ag3143
ag2970
ag1686
ag1667
ag2435
ag2328
ag1035
ag2266
ag1264
ag653
ag476
ag839
ag3061
ag1609
ag1249
ag2077
ag2967
ag385
ag3148
ag2373
ag3133
ag1745
ag856
ag310
ag1469
ag3377
ag903
ag1884
ag886
ag156
ag896
ag1507
ag3340
ag2242
ag2135
ag782
ag2748
ag1972
ag1319
ag833
ag2092
ag508
ag832
ag942
ag3213
ag2563
ag3073
ag1527
ag1839
ag2121
ag3312
ag1982
ag1881
ag1465
ag2086
ag1098
ag1838
ag927
ag2119
ag35
ag261
ag917
ag2870
ag1157
ag413
ag3067
ag392
ag118
ag2397
ag368
ag3288
ag796
ag2942
ag2090
ag625
ag116
ag637
ag2908
ag1508
ag1354
ag1364
ag1793
ag3000
ag1314
ag242
ag370
ag818
ag1299
ag2284
ag3367
ag1185
ag1703
ag192
ag1688
ag876
ag1109
ag2141
ag1863
ag783
ag1682
ag2839
ag772
ag2282
ag2897
ag3018
ag677
ag3313
ag1694
ag829
ag299
ag394
ag3109
ag965
ag1046
ag26
ag2394
ag598
ag3221
ag880
ag2899
ag2280
ag1280
ag3010
ag1516
ag2836
ag1897
ag2279
ag260
ag1475
ag2462
ag2617
ag1864
ag1690
ag1499
ag1490
ag2927
ag2190
ag2275
ag1013
ag2432
ag2183
ag1543
ag2922
ag868
ag309
ag1781
ag2157
ag3256
ag2747
ag450
ag351
ag416
ag1890
ag1057
ag2173
ag2738
ag133
ag2926
ag3214
ag2722
ag1292
ag1871
ag2489
ag1562
ag2969
ag3354
ag799
ag2380
ag1759
ag3049
ag1000
ag114
ag2253
ag2131
ag3292
ag589
ag3074
ag2209
ag2041
ag755
ag3326
ag2688
ag1059
ag1912
ag1330
ag2607
ag1646
ag3172
ag105
ag3304
ag254
ag3355
ag1512
ag1569
ag867
ag1366
ag3343
ag155
ag1334
ag2635
ag2654
ag949
ag1740
ag2649
ag3057
ag3096
ag2822
ag680
ag2919
ag2018
ag3007
ag1289
ag1493
ag2148
ag395
ag2140
ag312
ag2350
ag302
ag3247
ag3325
ag2758
ag952
ag1593
ag3271
ag2152
ag795
ag838
ag1952
ag2960
ag2298
ag1383
ag1283
ag2835
ag712
ag2334
ag815
ag3241
ag44
ag1217
ag2356
ag1387
ag2112
ag618
ag2403
ag2495
ag1823
ag757
ag1571
ag3033
ag2045
ag1303
ag2752
ag2669
ag1685
ag2950
ag2753
ag1558
ag984
ag1525
ag3063
ag537
ag2901
ag1967
ag602
ag2854
ag77
ag2154
ag1730
ag374
ag1908
ag1792
ag612
ag2382
ag162
ag2392
ag3246
ag551
ag1065
ag1359
ag904
ag1716
ag704
ag2852
ag2789
ag1129
ag802
ag3232
ag3296
ag570
ag1277
ag485
ag219
ag227
ag1710
ag28
ag2918
ag433
ag173
ag1777
ag91
ag1190
ag1143
ag1765
ag3202
ag360
ag2945
ag1381
ag2898
ag418
ag1826
ag2425
ag1773
ag1847
ag1341
ag266
ag1424
ag1073
ag188
ag2139
ag2322
ag2301
ag377
ag1485
ag2263
ag765
ag3118
ag2225
ag1367
ag2878
ag707
ag1504
ag3175
ag1105
ag71
ag1727
ag2596
ag1598
ag1523
ag3272
ag1265
ag946
ag2327
ag187
ag3044
ag88
ag870
ag2012
ag1347
ag1552
ag999
ag2052
ag1628
ag1322
ag516
ag1734
ag2443
ag897
ag1051
ag1800
ag3134
ag411
ag2574
ag3179
ag1810
ag3121
ag1148
ag168
ag3295
ag398
ag3149
ag1923
ag998
ag427
ag561
ag803
ag1610
ag1683
ag2314
ag2005
ag3177
ag916
ag2976
ag3156
ag1253
ag62
ag1714
ag1775
ag501
ag1450
ag1997
ag2416
ag1247
ag488
ag2477
ag790
ag1371
ag3239
ag1203
ag926
ag2463
ag76
ag2448
ag3298
ag1418
ag1932
ag1774
ag2915
ag1603
ag2640
ag2811
ag2692
ag1239
ag2956
ag575
ag1184
ag2013
ag225
ag2730
ag1626
ag682
ag126
ag3327
ag454
ag1592
ag770
ag2555
ag1362
ag1578
ag226
ag3191
ag1273
ag1990
ag40
ag1405
ag758
ag3114
ag75
ag1948
ag235
ag1193
ag446
ag646
ag465
ag2718
ag304
ag1433
ag2783
ag3319
ag1985
ag1498
ag2810
ag431
ag2248
ag1673
ag3345
ag327
ag1007
ag2940
ag3255
ag2244
ag2426
ag237
ag2896
ag3318
ag2605
ag1155
ag1260
ag853
ag435
ag743
ag512
ag1434
ag2595
ag2204
ag276
ag3088
ag487
ag721
ag479
ag901
ag1866
ag1222
ag259
ag2214
ag1660
ag2344
ag1804
ag2755
ag2015
ag3333
ag2782
ag1896
ag1036
ag3188
ag2944
ag1979
ag3053
ag3258
ag1463
ag2032
ag624
ag766
ag1575
ag3337
ag410
ag1844
ag1372
ag2379
ag3215
ag2067
ag2787
ag1251
ag780
ag2557
ag2628
ag193
ag2848
ag502
ag635
ag958
ag1762
ag1431
ag663
ag2353
ag697
ag2404
ag986
ag3323
ag2516
ag3332
ag1655
ag2706
ag2529
ag470
ag115
ag1618
ag1335
ag774
ag346
ag112
ag2458
ag399
ag568
ag1042
ag1313
ag2996
ag2212
ag438
ag2872
ag1419
ag560
ag2446
ag845
ag1115
ag922
ag270
ag1176
ag2351
ag1116
ag1146
ag2415
ag1768
ag2320
ag1947
ag210
ag1834
ag2490
ag81
ag2761
ag2964
ag1650
ag2167
ag887
ag1066
ag2664
ag3097
ag519
ag1087
ag3084
ag1513
ag2585
ag1288
ag3380
ag735
ag2310
ag406
ag2951
ag1458
ag202
ag2029
ag827
ag1974
ag3338
ag190
ag1570
ag1796
ag2982
ag30
ag1072
ag2992
ag2172
ag878
ag3359
ag2451
ag2770
ag730
ag2464
ag992
ag1030
ag2019
ag2419
ag3201
ag1894
ag384
ag2948
ag2332
ag298
ag1104
ag3025
ag2625
ag2689
ag2892
ag2777
ag1400
ag1396
ag2552
ag920
ag87
ag3019
ag2289
ag2497
ag1049
ag2771
ag2088
ag150
ag1739
ag2377
ag2276
ag379
ag921
ag855
ag1750
ag1180
ag789
ag1356
ag2866
ag706
ag577
ag2453
ag2410
ag1083
ag1946
ag2057
ag649
ag816
ag1332
ag2615
ag3011
ag3009
ag503
ag2295
ag614
ag322
ag2728
ag466
ag559
ag915
ag233
ag1246
ag698
ag425
ag2980
ag1151
ag723
ag3015
ag2125
ag667
ag1799
aS'W'
ag565
ag2078
ag172
ag3227
ag3209
ag1225
ag1138
ag1079
ag2780
ag1006
ag2965
ag1100
ag974
ag2191
ag2124
ag1278
ag2304
ag1612
ag300
ag1692
ag3300
ag292
ag1621
ag89
ag1732
ag699
ag1808
ag439
ag1718
ag797
ag2228
ag1224
ag2953
ag2227
ag169
ag1503
ag1254
ag2764
ag2991
ag314
ag2321
ag1317
ag2043
ag2102
ag3081
ag913
ag595
ag645
ag129
aS'J'
ag2393
ag2720
ag1624
ag472
ag2210
ag2597
ag773
ag893
ag2202
ag1699
ag1973
ag2455
ag236
ag3229
ag1337
ag2542
ag138
ag1296
ag977
ag1510
ag1708
ag1976
ag2305
ag538
ag541
ag1835
ag2532
ag49
ag3137
ag1638
ag1082
ag1234
ag2793
ag3363
ag2906
ag2127
ag18
ag1486
ag2441
ag2554
ag1641
ag2277
ag282
ag1438
ag2352
ag740
ag3225
ag1408
ag533
ag3070
ag2769
ag2938
ag2229
ag3376
ag1865
ag1522
ag1298
ag3142
ag558
ag1837
ag2749
ag2840
ag3029
ag240
ag1812
ag787
ag1316
ag2520
ag791
ag2750
ag1980
ag1671
ag1369
ag445
ag3231
ag2422
ag1858
ag531
ag705
ag1728
ag2581
ag2911
ag1091
ag2450
ag2361
ag1437
ag2051
ag2517
ag1704
ag700
ag515
ag2230
ag2000
ag2025
ag1566
ag2943
ag3043
ag3205
ag864
ag69
ag2536
ag945
ag643
ag1004
ag1935
ag2287
ag1022
ag1767
ag1377
ag1747
ag1721
ag1919
ag2262
ag1553
ag2357
ag1915
ag2438
ag2417
ag3034
ag3223
ag1963
ag2865
ag2604
ag2096
ag2294
ag2331
ag966
ag1481
ag991
ag2184
ag2533
ag1983
ag2877
ag1794
ag1669
ag3079
ag3303
ag821
ag1358
ag2646
ag505
ag590
ag2827
ag1125
ag2647
ag2048
ag2583
ag866
ag2259
ag3047
ag1978
ag2859
ag124
ag2713
ag862
ag1663
ag1117
ag546
ag899
ag1497
ag2804
ag2923
ag2293
ag201
ag1617
ag1853
ag1327
ag1591
ag2116
ag1187
ag597
ag3368
ag1607
ag1282
ag2578
ag1315
ag3307
ag959
ag402
ag2907
ag530
ag72
ag66
ag141
ag3103
ag1074
ag1390
ag2346
ag3182
ag2739
ag2216
ag335
ag1471
ag2547
ag2566
ag55
ag890
ag2632
ag2697
ag1531
ag154
ag2665
ag2575
ag494
ag2407
ag3169
ag1392
ag2059
ag2637
ag756
ag963
ag295
ag495
ag525
ag297
ag2825
ag1930
ag2472
ag588
ag822
ag86
ag2252
ag289
ag1803
ag308
ag2468
ag108
ag2842
ag714
ag1370
ag514
ag2774
ag2506
ag1506
ag1509
ag851
ag56
ag1715
ag3236
ag1627
ag3279
ag2778
ag771
ag935
ag2762
ag1194
ag1086
ag3353
ag217
ag1232
ag251
ag2673
ag185
ag620
ag1075
ag3306
ag968
ag2408
ag2073
ag2211
ag1906
ag1798
ag2215
ag1428
ag929
ag1172
ag50
ag1219
ag3154
ag1169
ag1702
ag2217
ag1284
ag2024
ag1014
ag2345
ag2626
ag2599
ag1491
ag1724
ag1893
ag1647
ag1770
ag3301
ag38
ag2653
ag2008
ag422
ag1806
ag1563
ag1876
ag574
ag2905
ag3339
ag2875
ag2105
ag1521
ag604
ag361
ag924
ag732
ag3128
ag989
ag1533
ag2591
ag2383
ag586
ag60
ag2846
ag1064
ag1244
ag256
ag1477
ag2302
ag1619
ag1551
ag2256
ag2573
ag1788
ag2084
ag2766
ag850
ag1442
ag3216
ag2205
ag1295
ag204
ag1766
ag572
ag101
ag2113
ag2430
ag214
ag390
ag1466
ag145
ag1167
ag3185
ag2465
ag3124
ag1407
ag555
ag2524
ag1384
ag1044
ag1168
ag506
ag784
ag1350
ag1181
ag2396
ag1103
ag461
ag759
ag591
ag3122
ag3341
ag786
ag241
ag2849
ag1097
ag737
ag1223
ag170
ag2111
ag2754
ag1134
ag97
ag2161
ag2433
ag980
ag2354
ag3140
ag2338
ag234
ag1998
ag3024
ag2525
ag2930
ag1809
ag1818
ag2374
ag1357
ag1955
ag179
ag3055
ag1988
ag2309
ag2660
ag2539
ag2367
ag2180
ag3371
ag2610
ag1467
ag93
ag1665
ag110
ag2411
ag621
ag584
ag1758
ag3101
ag2977
ag2268
ag174
ag3187
ag2366
ag1949
ag1749
ag2288
ag2108
ag1210
ag1293
ag2971
ag745
ag2968
ag2179
ag2569
ag2723
ag451
ag1159
ag2136
ag3115
ag2719
ag1524
ag1984
ag2097
ag109
ag37
ag1204
ag178
ag2535
ag2826
ag1651
ag2300
ag2570
ag329
ag628
ag1122
ag1676
ag3294
ag1953
ag280
ag569
ag1851
ag2925
ag970
ag1585
ag2220
ag440
ag1397
ag2887
ag1420
ag46
ag2064
ag526
ag319
ag1717
ag1720
ag769
ag1753
ag3315
ag2830
ag1944
ag3195
ag153
asbsS'max_document_length'
p3385
I100
sS'_tokenizer'
p3386
ctensorflow.contrib.learn.python.learn.preprocessing.text
tokenizer
p3387
sS'min_frequency'
p3388
I0
sb.